Archive member included to satisfy reference by file (symbol)

e:/siliconlabs/simplicitystudio/v5/developer/toolchains/gnu_arm/12.2.rel1_2023.7/bin/../lib/gcc/arm-none-eabi/12.2.1/thumb/v7e-m+fp/softfp\libc_nano.a(libc_a-calloc.o)
                              ./gecko_sdk_4.4.4/util/silicon_labs/silabs_core/memory_manager/sl_malloc.o (calloc)
e:/siliconlabs/simplicitystudio/v5/developer/toolchains/gnu_arm/12.2.rel1_2023.7/bin/../lib/gcc/arm-none-eabi/12.2.1/thumb/v7e-m+fp/softfp\libc_nano.a(libc_a-callocr.o)
                              e:/siliconlabs/simplicitystudio/v5/developer/toolchains/gnu_arm/12.2.rel1_2023.7/bin/../lib/gcc/arm-none-eabi/12.2.1/thumb/v7e-m+fp/softfp\libc_nano.a(libc_a-calloc.o) (_calloc_r)
e:/siliconlabs/simplicitystudio/v5/developer/toolchains/gnu_arm/12.2.rel1_2023.7/bin/../lib/gcc/arm-none-eabi/12.2.1/thumb/v7e-m+fp/softfp\libc_nano.a(libc_a-exit.o)
                              e:/siliconlabs/simplicitystudio/v5/developer/toolchains/gnu_arm/12.2.rel1_2023.7/bin/../lib/gcc/arm-none-eabi/12.2.1/thumb/v7e-m+fp/softfp/crt0.o (exit)
e:/siliconlabs/simplicitystudio/v5/developer/toolchains/gnu_arm/12.2.rel1_2023.7/bin/../lib/gcc/arm-none-eabi/12.2.1/thumb/v7e-m+fp/softfp\libc_nano.a(libc_a-malloc.o)
                              ./gecko_sdk_4.4.4/util/silicon_labs/silabs_core/memory_manager/sl_malloc.o (malloc)
e:/siliconlabs/simplicitystudio/v5/developer/toolchains/gnu_arm/12.2.rel1_2023.7/bin/../lib/gcc/arm-none-eabi/12.2.1/thumb/v7e-m+fp/softfp\libc_nano.a(libc_a-mallocr.o)
                              e:/siliconlabs/simplicitystudio/v5/developer/toolchains/gnu_arm/12.2.rel1_2023.7/bin/../lib/gcc/arm-none-eabi/12.2.1/thumb/v7e-m+fp/softfp\libc_nano.a(libc_a-callocr.o) (_malloc_r)
e:/siliconlabs/simplicitystudio/v5/developer/toolchains/gnu_arm/12.2.rel1_2023.7/bin/../lib/gcc/arm-none-eabi/12.2.1/thumb/v7e-m+fp/softfp\libc_nano.a(libc_a-mlock.o)
                              e:/siliconlabs/simplicitystudio/v5/developer/toolchains/gnu_arm/12.2.rel1_2023.7/bin/../lib/gcc/arm-none-eabi/12.2.1/thumb/v7e-m+fp/softfp\libc_nano.a(libc_a-mallocr.o) (__malloc_lock)
e:/siliconlabs/simplicitystudio/v5/developer/toolchains/gnu_arm/12.2.rel1_2023.7/bin/../lib/gcc/arm-none-eabi/12.2.1/thumb/v7e-m+fp/softfp\libc_nano.a(libc_a-realloc.o)
                              ./gecko_sdk_4.4.4/util/silicon_labs/silabs_core/memory_manager/sl_malloc.o (realloc)
e:/siliconlabs/simplicitystudio/v5/developer/toolchains/gnu_arm/12.2.rel1_2023.7/bin/../lib/gcc/arm-none-eabi/12.2.1/thumb/v7e-m+fp/softfp\libc_nano.a(libc_a-reallocr.o)
                              e:/siliconlabs/simplicitystudio/v5/developer/toolchains/gnu_arm/12.2.rel1_2023.7/bin/../lib/gcc/arm-none-eabi/12.2.1/thumb/v7e-m+fp/softfp\libc_nano.a(libc_a-realloc.o) (_realloc_r)
e:/siliconlabs/simplicitystudio/v5/developer/toolchains/gnu_arm/12.2.rel1_2023.7/bin/../lib/gcc/arm-none-eabi/12.2.1/thumb/v7e-m+fp/softfp\libc_nano.a(libc_a-ctype_.o)
                              ./gecko_sdk_4.4.4/platform/common/src/sl_string.o (_ctype_)
e:/siliconlabs/simplicitystudio/v5/developer/toolchains/gnu_arm/12.2.rel1_2023.7/bin/../lib/gcc/arm-none-eabi/12.2.1/thumb/v7e-m+fp/softfp\libc_nano.a(libc_a-findfp.o)
                              e:/siliconlabs/simplicitystudio/v5/developer/toolchains/gnu_arm/12.2.rel1_2023.7/bin/../lib/gcc/arm-none-eabi/12.2.1/thumb/v7e-m+fp/softfp\libc_nano.a(libc_a-exit.o) (__stdio_exit_handler)
e:/siliconlabs/simplicitystudio/v5/developer/toolchains/gnu_arm/12.2.rel1_2023.7/bin/../lib/gcc/arm-none-eabi/12.2.1/thumb/v7e-m+fp/softfp\libc_nano.a(libc_a-fwalk.o)
                              e:/siliconlabs/simplicitystudio/v5/developer/toolchains/gnu_arm/12.2.rel1_2023.7/bin/../lib/gcc/arm-none-eabi/12.2.1/thumb/v7e-m+fp/softfp\libc_nano.a(libc_a-findfp.o) (_fwalk_sglue)
e:/siliconlabs/simplicitystudio/v5/developer/toolchains/gnu_arm/12.2.rel1_2023.7/bin/../lib/gcc/arm-none-eabi/12.2.1/thumb/v7e-m+fp/softfp\libc_nano.a(libc_a-stdio.o)
                              e:/siliconlabs/simplicitystudio/v5/developer/toolchains/gnu_arm/12.2.rel1_2023.7/bin/../lib/gcc/arm-none-eabi/12.2.1/thumb/v7e-m+fp/softfp\libc_nano.a(libc_a-findfp.o) (__sread)
e:/siliconlabs/simplicitystudio/v5/developer/toolchains/gnu_arm/12.2.rel1_2023.7/bin/../lib/gcc/arm-none-eabi/12.2.1/thumb/v7e-m+fp/softfp\libc_nano.a(libc_a-memset.o)
                              e:/siliconlabs/simplicitystudio/v5/developer/toolchains/gnu_arm/12.2.rel1_2023.7/bin/../lib/gcc/arm-none-eabi/12.2.1/thumb/v7e-m+fp/softfp/crt0.o (memset)
e:/siliconlabs/simplicitystudio/v5/developer/toolchains/gnu_arm/12.2.rel1_2023.7/bin/../lib/gcc/arm-none-eabi/12.2.1/thumb/v7e-m+fp/softfp\libc_nano.a(libc_a-strtok.o)
                              ./autogen/sl_usbd_class_vendor_instances.o (strtok)
e:/siliconlabs/simplicitystudio/v5/developer/toolchains/gnu_arm/12.2.rel1_2023.7/bin/../lib/gcc/arm-none-eabi/12.2.1/thumb/v7e-m+fp/softfp\libc_nano.a(libc_a-strtok_r.o)
                              e:/siliconlabs/simplicitystudio/v5/developer/toolchains/gnu_arm/12.2.rel1_2023.7/bin/../lib/gcc/arm-none-eabi/12.2.1/thumb/v7e-m+fp/softfp\libc_nano.a(libc_a-strtok.o) (__strtok_r)
e:/siliconlabs/simplicitystudio/v5/developer/toolchains/gnu_arm/12.2.rel1_2023.7/bin/../lib/gcc/arm-none-eabi/12.2.1/thumb/v7e-m+fp/softfp\libc_nano.a(libc_a-closer.o)
                              e:/siliconlabs/simplicitystudio/v5/developer/toolchains/gnu_arm/12.2.rel1_2023.7/bin/../lib/gcc/arm-none-eabi/12.2.1/thumb/v7e-m+fp/softfp\libc_nano.a(libc_a-stdio.o) (_close_r)
e:/siliconlabs/simplicitystudio/v5/developer/toolchains/gnu_arm/12.2.rel1_2023.7/bin/../lib/gcc/arm-none-eabi/12.2.1/thumb/v7e-m+fp/softfp\libc_nano.a(libc_a-reent.o)
                              e:/siliconlabs/simplicitystudio/v5/developer/toolchains/gnu_arm/12.2.rel1_2023.7/bin/../lib/gcc/arm-none-eabi/12.2.1/thumb/v7e-m+fp/softfp\libc_nano.a(libc_a-closer.o) (errno)
e:/siliconlabs/simplicitystudio/v5/developer/toolchains/gnu_arm/12.2.rel1_2023.7/bin/../lib/gcc/arm-none-eabi/12.2.1/thumb/v7e-m+fp/softfp\libc_nano.a(libc_a-impure.o)
                              e:/siliconlabs/simplicitystudio/v5/developer/toolchains/gnu_arm/12.2.rel1_2023.7/bin/../lib/gcc/arm-none-eabi/12.2.1/thumb/v7e-m+fp/softfp\libc_nano.a(libc_a-calloc.o) (_impure_ptr)
e:/siliconlabs/simplicitystudio/v5/developer/toolchains/gnu_arm/12.2.rel1_2023.7/bin/../lib/gcc/arm-none-eabi/12.2.1/thumb/v7e-m+fp/softfp\libc_nano.a(libc_a-lseekr.o)
                              e:/siliconlabs/simplicitystudio/v5/developer/toolchains/gnu_arm/12.2.rel1_2023.7/bin/../lib/gcc/arm-none-eabi/12.2.1/thumb/v7e-m+fp/softfp\libc_nano.a(libc_a-stdio.o) (_lseek_r)
e:/siliconlabs/simplicitystudio/v5/developer/toolchains/gnu_arm/12.2.rel1_2023.7/bin/../lib/gcc/arm-none-eabi/12.2.1/thumb/v7e-m+fp/softfp\libc_nano.a(libc_a-readr.o)
                              e:/siliconlabs/simplicitystudio/v5/developer/toolchains/gnu_arm/12.2.rel1_2023.7/bin/../lib/gcc/arm-none-eabi/12.2.1/thumb/v7e-m+fp/softfp\libc_nano.a(libc_a-stdio.o) (_read_r)
e:/siliconlabs/simplicitystudio/v5/developer/toolchains/gnu_arm/12.2.rel1_2023.7/bin/../lib/gcc/arm-none-eabi/12.2.1/thumb/v7e-m+fp/softfp\libc_nano.a(libc_a-sbrkr.o)
                              e:/siliconlabs/simplicitystudio/v5/developer/toolchains/gnu_arm/12.2.rel1_2023.7/bin/../lib/gcc/arm-none-eabi/12.2.1/thumb/v7e-m+fp/softfp\libc_nano.a(libc_a-mallocr.o) (_sbrk_r)
e:/siliconlabs/simplicitystudio/v5/developer/toolchains/gnu_arm/12.2.rel1_2023.7/bin/../lib/gcc/arm-none-eabi/12.2.1/thumb/v7e-m+fp/softfp\libc_nano.a(libc_a-writer.o)
                              e:/siliconlabs/simplicitystudio/v5/developer/toolchains/gnu_arm/12.2.rel1_2023.7/bin/../lib/gcc/arm-none-eabi/12.2.1/thumb/v7e-m+fp/softfp\libc_nano.a(libc_a-stdio.o) (_write_r)
e:/siliconlabs/simplicitystudio/v5/developer/toolchains/gnu_arm/12.2.rel1_2023.7/bin/../lib/gcc/arm-none-eabi/12.2.1/thumb/v7e-m+fp/softfp\libc_nano.a(libc_a-init.o)
                              e:/siliconlabs/simplicitystudio/v5/developer/toolchains/gnu_arm/12.2.rel1_2023.7/bin/../lib/gcc/arm-none-eabi/12.2.1/thumb/v7e-m+fp/softfp/crt0.o (__libc_init_array)
e:/siliconlabs/simplicitystudio/v5/developer/toolchains/gnu_arm/12.2.rel1_2023.7/bin/../lib/gcc/arm-none-eabi/12.2.1/thumb/v7e-m+fp/softfp\libc_nano.a(libc_a-lock.o)
                              e:/siliconlabs/simplicitystudio/v5/developer/toolchains/gnu_arm/12.2.rel1_2023.7/bin/../lib/gcc/arm-none-eabi/12.2.1/thumb/v7e-m+fp/softfp\libc_nano.a(libc_a-findfp.o) (__retarget_lock_init_recursive)
e:/siliconlabs/simplicitystudio/v5/developer/toolchains/gnu_arm/12.2.rel1_2023.7/bin/../lib/gcc/arm-none-eabi/12.2.1/thumb/v7e-m+fp/softfp\libc_nano.a(libc_a-strcmp.o)
                              ./autogen/sl_usbd_class_vendor_instances.o (strcmp)
e:/siliconlabs/simplicitystudio/v5/developer/toolchains/gnu_arm/12.2.rel1_2023.7/bin/../lib/gcc/arm-none-eabi/12.2.1/thumb/v7e-m+fp/softfp\libc_nano.a(libc_a-memcpy-stub.o)
                              ./autogen/sl_usbd_class_vendor_instances.o (memcpy)
e:/siliconlabs/simplicitystudio/v5/developer/toolchains/gnu_arm/12.2.rel1_2023.7/bin/../lib/gcc/arm-none-eabi/12.2.1/thumb/v7e-m+fp/softfp\libc_nano.a(libc_a-assert.o)
                              e:/siliconlabs/simplicitystudio/v5/developer/toolchains/gnu_arm/12.2.rel1_2023.7/bin/../lib/gcc/arm-none-eabi/12.2.1/thumb/v7e-m+fp/softfp\libc_nano.a(libc_a-strtok.o) (__assert_func)
e:/siliconlabs/simplicitystudio/v5/developer/toolchains/gnu_arm/12.2.rel1_2023.7/bin/../lib/gcc/arm-none-eabi/12.2.1/thumb/v7e-m+fp/softfp\libc_nano.a(libc_a-freer.o)
                              e:/siliconlabs/simplicitystudio/v5/developer/toolchains/gnu_arm/12.2.rel1_2023.7/bin/../lib/gcc/arm-none-eabi/12.2.1/thumb/v7e-m+fp/softfp\libc_nano.a(libc_a-malloc.o) (_free_r)
e:/siliconlabs/simplicitystudio/v5/developer/toolchains/gnu_arm/12.2.rel1_2023.7/bin/../lib/gcc/arm-none-eabi/12.2.1/thumb/v7e-m+fp/softfp\libc_nano.a(libc_a-msizer.o)
                              e:/siliconlabs/simplicitystudio/v5/developer/toolchains/gnu_arm/12.2.rel1_2023.7/bin/../lib/gcc/arm-none-eabi/12.2.1/thumb/v7e-m+fp/softfp\libc_nano.a(libc_a-reallocr.o) (_malloc_usable_size_r)
e:/siliconlabs/simplicitystudio/v5/developer/toolchains/gnu_arm/12.2.rel1_2023.7/bin/../lib/gcc/arm-none-eabi/12.2.1/thumb/v7e-m+fp/softfp\libc_nano.a(libc_a-fflush.o)
                              e:/siliconlabs/simplicitystudio/v5/developer/toolchains/gnu_arm/12.2.rel1_2023.7/bin/../lib/gcc/arm-none-eabi/12.2.1/thumb/v7e-m+fp/softfp\libc_nano.a(libc_a-findfp.o) (_fflush_r)
e:/siliconlabs/simplicitystudio/v5/developer/toolchains/gnu_arm/12.2.rel1_2023.7/bin/../lib/gcc/arm-none-eabi/12.2.1/thumb/v7e-m+fp/softfp\libc_nano.a(libc_a-fprintf.o)
                              e:/siliconlabs/simplicitystudio/v5/developer/toolchains/gnu_arm/12.2.rel1_2023.7/bin/../lib/gcc/arm-none-eabi/12.2.1/thumb/v7e-m+fp/softfp\libc_nano.a(libc_a-assert.o) (fiprintf)
e:/siliconlabs/simplicitystudio/v5/developer/toolchains/gnu_arm/12.2.rel1_2023.7/bin/../lib/gcc/arm-none-eabi/12.2.1/thumb/v7e-m+fp/softfp\libc_nano.a(libc_a-abort.o)
                              e:/siliconlabs/simplicitystudio/v5/developer/toolchains/gnu_arm/12.2.rel1_2023.7/bin/../lib/gcc/arm-none-eabi/12.2.1/thumb/v7e-m+fp/softfp\libc_nano.a(libc_a-assert.o) (abort)
e:/siliconlabs/simplicitystudio/v5/developer/toolchains/gnu_arm/12.2.rel1_2023.7/bin/../lib/gcc/arm-none-eabi/12.2.1/thumb/v7e-m+fp/softfp\libc_nano.a(libc_a-nano-vfprintf.o)
                              e:/siliconlabs/simplicitystudio/v5/developer/toolchains/gnu_arm/12.2.rel1_2023.7/bin/../lib/gcc/arm-none-eabi/12.2.1/thumb/v7e-m+fp/softfp\libc_nano.a(libc_a-fprintf.o) (_vfprintf_r)
e:/siliconlabs/simplicitystudio/v5/developer/toolchains/gnu_arm/12.2.rel1_2023.7/bin/../lib/gcc/arm-none-eabi/12.2.1/thumb/v7e-m+fp/softfp\libc_nano.a(libc_a-nano-vfprintf_i.o)
                              e:/siliconlabs/simplicitystudio/v5/developer/toolchains/gnu_arm/12.2.rel1_2023.7/bin/../lib/gcc/arm-none-eabi/12.2.1/thumb/v7e-m+fp/softfp\libc_nano.a(libc_a-nano-vfprintf.o) (_printf_i)
e:/siliconlabs/simplicitystudio/v5/developer/toolchains/gnu_arm/12.2.rel1_2023.7/bin/../lib/gcc/arm-none-eabi/12.2.1/thumb/v7e-m+fp/softfp\libc_nano.a(libc_a-fvwrite.o)
                              e:/siliconlabs/simplicitystudio/v5/developer/toolchains/gnu_arm/12.2.rel1_2023.7/bin/../lib/gcc/arm-none-eabi/12.2.1/thumb/v7e-m+fp/softfp\libc_nano.a(libc_a-nano-vfprintf.o) (__sfvwrite_r)
e:/siliconlabs/simplicitystudio/v5/developer/toolchains/gnu_arm/12.2.rel1_2023.7/bin/../lib/gcc/arm-none-eabi/12.2.1/thumb/v7e-m+fp/softfp\libc_nano.a(libc_a-wbuf.o)
                              e:/siliconlabs/simplicitystudio/v5/developer/toolchains/gnu_arm/12.2.rel1_2023.7/bin/../lib/gcc/arm-none-eabi/12.2.1/thumb/v7e-m+fp/softfp\libc_nano.a(libc_a-nano-vfprintf.o) (__swbuf_r)
e:/siliconlabs/simplicitystudio/v5/developer/toolchains/gnu_arm/12.2.rel1_2023.7/bin/../lib/gcc/arm-none-eabi/12.2.1/thumb/v7e-m+fp/softfp\libc_nano.a(libc_a-wsetup.o)
                              e:/siliconlabs/simplicitystudio/v5/developer/toolchains/gnu_arm/12.2.rel1_2023.7/bin/../lib/gcc/arm-none-eabi/12.2.1/thumb/v7e-m+fp/softfp\libc_nano.a(libc_a-nano-vfprintf.o) (__swsetup_r)
e:/siliconlabs/simplicitystudio/v5/developer/toolchains/gnu_arm/12.2.rel1_2023.7/bin/../lib/gcc/arm-none-eabi/12.2.1/thumb/v7e-m+fp/softfp\libc_nano.a(libc_a-memmove.o)
                              e:/siliconlabs/simplicitystudio/v5/developer/toolchains/gnu_arm/12.2.rel1_2023.7/bin/../lib/gcc/arm-none-eabi/12.2.1/thumb/v7e-m+fp/softfp\libc_nano.a(libc_a-fvwrite.o) (memmove)
e:/siliconlabs/simplicitystudio/v5/developer/toolchains/gnu_arm/12.2.rel1_2023.7/bin/../lib/gcc/arm-none-eabi/12.2.1/thumb/v7e-m+fp/softfp\libc_nano.a(libc_a-signal.o)
                              e:/siliconlabs/simplicitystudio/v5/developer/toolchains/gnu_arm/12.2.rel1_2023.7/bin/../lib/gcc/arm-none-eabi/12.2.1/thumb/v7e-m+fp/softfp\libc_nano.a(libc_a-abort.o) (raise)
e:/siliconlabs/simplicitystudio/v5/developer/toolchains/gnu_arm/12.2.rel1_2023.7/bin/../lib/gcc/arm-none-eabi/12.2.1/thumb/v7e-m+fp/softfp\libc_nano.a(libc_a-signalr.o)
                              e:/siliconlabs/simplicitystudio/v5/developer/toolchains/gnu_arm/12.2.rel1_2023.7/bin/../lib/gcc/arm-none-eabi/12.2.1/thumb/v7e-m+fp/softfp\libc_nano.a(libc_a-signal.o) (_kill_r)
e:/siliconlabs/simplicitystudio/v5/developer/toolchains/gnu_arm/12.2.rel1_2023.7/bin/../lib/gcc/arm-none-eabi/12.2.1/thumb/v7e-m+fp/softfp\libc_nano.a(libc_a-memchr.o)
                              e:/siliconlabs/simplicitystudio/v5/developer/toolchains/gnu_arm/12.2.rel1_2023.7/bin/../lib/gcc/arm-none-eabi/12.2.1/thumb/v7e-m+fp/softfp\libc_nano.a(libc_a-nano-vfprintf.o) (memchr)
e:/siliconlabs/simplicitystudio/v5/developer/toolchains/gnu_arm/12.2.rel1_2023.7/bin/../lib/gcc/arm-none-eabi/12.2.1/thumb/v7e-m+fp/softfp\libc_nano.a(libc_a-makebuf.o)
                              e:/siliconlabs/simplicitystudio/v5/developer/toolchains/gnu_arm/12.2.rel1_2023.7/bin/../lib/gcc/arm-none-eabi/12.2.1/thumb/v7e-m+fp/softfp\libc_nano.a(libc_a-wsetup.o) (__smakebuf_r)
e:/siliconlabs/simplicitystudio/v5/developer/toolchains/gnu_arm/12.2.rel1_2023.7/bin/../lib/gcc/arm-none-eabi/12.2.1/thumb/v7e-m+fp/softfp\libc_nano.a(libc_a-fstatr.o)
                              e:/siliconlabs/simplicitystudio/v5/developer/toolchains/gnu_arm/12.2.rel1_2023.7/bin/../lib/gcc/arm-none-eabi/12.2.1/thumb/v7e-m+fp/softfp\libc_nano.a(libc_a-makebuf.o) (_fstat_r)
e:/siliconlabs/simplicitystudio/v5/developer/toolchains/gnu_arm/12.2.rel1_2023.7/bin/../lib/gcc/arm-none-eabi/12.2.1/thumb/v7e-m+fp/softfp\libc_nano.a(libc_a-isattyr.o)
                              e:/siliconlabs/simplicitystudio/v5/developer/toolchains/gnu_arm/12.2.rel1_2023.7/bin/../lib/gcc/arm-none-eabi/12.2.1/thumb/v7e-m+fp/softfp\libc_nano.a(libc_a-makebuf.o) (_isatty_r)

Discarded input sections

 .text          0x00000000        0x0 e:/siliconlabs/simplicitystudio/v5/developer/toolchains/gnu_arm/12.2.rel1_2023.7/bin/../lib/gcc/arm-none-eabi/12.2.1/thumb/v7e-m+fp/softfp/crti.o
 .data          0x00000000        0x0 e:/siliconlabs/simplicitystudio/v5/developer/toolchains/gnu_arm/12.2.rel1_2023.7/bin/../lib/gcc/arm-none-eabi/12.2.1/thumb/v7e-m+fp/softfp/crti.o
 .bss           0x00000000        0x0 e:/siliconlabs/simplicitystudio/v5/developer/toolchains/gnu_arm/12.2.rel1_2023.7/bin/../lib/gcc/arm-none-eabi/12.2.1/thumb/v7e-m+fp/softfp/crti.o
 .text          0x00000000        0x0 e:/siliconlabs/simplicitystudio/v5/developer/toolchains/gnu_arm/12.2.rel1_2023.7/bin/../lib/gcc/arm-none-eabi/12.2.1/thumb/v7e-m+fp/softfp/crtbegin.o
 .data          0x00000000        0x0 e:/siliconlabs/simplicitystudio/v5/developer/toolchains/gnu_arm/12.2.rel1_2023.7/bin/../lib/gcc/arm-none-eabi/12.2.1/thumb/v7e-m+fp/softfp/crtbegin.o
 .bss           0x00000000        0x0 e:/siliconlabs/simplicitystudio/v5/developer/toolchains/gnu_arm/12.2.rel1_2023.7/bin/../lib/gcc/arm-none-eabi/12.2.1/thumb/v7e-m+fp/softfp/crtbegin.o
 .rodata.all_implied_fbits
                0x00000000       0x24 e:/siliconlabs/simplicitystudio/v5/developer/toolchains/gnu_arm/12.2.rel1_2023.7/bin/../lib/gcc/arm-none-eabi/12.2.1/thumb/v7e-m+fp/softfp/crtbegin.o
 .data.__dso_handle
                0x00000000        0x4 e:/siliconlabs/simplicitystudio/v5/developer/toolchains/gnu_arm/12.2.rel1_2023.7/bin/../lib/gcc/arm-none-eabi/12.2.1/thumb/v7e-m+fp/softfp/crtbegin.o
 .data          0x00000000        0x0 e:/siliconlabs/simplicitystudio/v5/developer/toolchains/gnu_arm/12.2.rel1_2023.7/bin/../lib/gcc/arm-none-eabi/12.2.1/thumb/v7e-m+fp/softfp/crt0.o
 .bss           0x00000000        0x0 e:/siliconlabs/simplicitystudio/v5/developer/toolchains/gnu_arm/12.2.rel1_2023.7/bin/../lib/gcc/arm-none-eabi/12.2.1/thumb/v7e-m+fp/softfp/crt0.o
 .ARM.extab     0x00000000        0x0 e:/siliconlabs/simplicitystudio/v5/developer/toolchains/gnu_arm/12.2.rel1_2023.7/bin/../lib/gcc/arm-none-eabi/12.2.1/thumb/v7e-m+fp/softfp/crt0.o
 .text          0x00000000        0x0 ./app.o
 .data          0x00000000        0x0 ./app.o
 .bss           0x00000000        0x0 ./app.o
 .text          0x00000000        0x0 ./main.o
 .data          0x00000000        0x0 ./main.o
 .bss           0x00000000        0x0 ./main.o
 .text          0x00000000        0x0 ./usb_composite_app.o
 .data          0x00000000        0x0 ./usb_composite_app.o
 .bss           0x00000000        0x0 ./usb_composite_app.o
 .bss.phy_desc_len
                0x00000000        0x2 ./usb_composite_app.o
 .bss.phy_desc_ptr
                0x00000000        0x4 ./usb_composite_app.o
 .text          0x00000000        0x0 ./autogen/sl_board_default_init.o
 .data          0x00000000        0x0 ./autogen/sl_board_default_init.o
 .bss           0x00000000        0x0 ./autogen/sl_board_default_init.o
 .text          0x00000000        0x0 ./autogen/sl_device_init_clocks.o
 .data          0x00000000        0x0 ./autogen/sl_device_init_clocks.o
 .bss           0x00000000        0x0 ./autogen/sl_device_init_clocks.o
 .text          0x00000000        0x0 ./autogen/sl_event_handler.o
 .data          0x00000000        0x0 ./autogen/sl_event_handler.o
 .bss           0x00000000        0x0 ./autogen/sl_event_handler.o
 .text          0x00000000        0x0 ./autogen/sl_usbd_class_vendor_instances.o
 .data          0x00000000        0x0 ./autogen/sl_usbd_class_vendor_instances.o
 .bss           0x00000000        0x0 ./autogen/sl_usbd_class_vendor_instances.o
 .text          0x00000000        0x0 ./autogen/sl_usbd_configuration_instances.o
 .data          0x00000000        0x0 ./autogen/sl_usbd_configuration_instances.o
 .bss           0x00000000        0x0 ./autogen/sl_usbd_configuration_instances.o
 .text          0x00000000        0x0 ./autogen/sl_usbd_init.o
 .data          0x00000000        0x0 ./autogen/sl_usbd_init.o
 .bss           0x00000000        0x0 ./autogen/sl_usbd_init.o
 .text          0x00000000        0x0 ./gecko_sdk_4.4.4/hardware/board/src/sl_board_control_gpio.o
 .data          0x00000000        0x0 ./gecko_sdk_4.4.4/hardware/board/src/sl_board_control_gpio.o
 .bss           0x00000000        0x0 ./gecko_sdk_4.4.4/hardware/board/src/sl_board_control_gpio.o
 .text.sl_board_configure_vcom
                0x00000000        0x4 ./gecko_sdk_4.4.4/hardware/board/src/sl_board_control_gpio.o
 .text.sl_board_enable_vcom
                0x00000000       0x12 ./gecko_sdk_4.4.4/hardware/board/src/sl_board_control_gpio.o
 .text.sl_board_disable_vcom
                0x00000000       0x12 ./gecko_sdk_4.4.4/hardware/board/src/sl_board_control_gpio.o
 .text.sl_board_enable_display
                0x00000000       0x12 ./gecko_sdk_4.4.4/hardware/board/src/sl_board_control_gpio.o
 .text.sl_board_disable_display
                0x00000000       0x12 ./gecko_sdk_4.4.4/hardware/board/src/sl_board_control_gpio.o
 .rodata.sl_board_enable_sensor.str1.1
                0x00000000       0x3e ./gecko_sdk_4.4.4/hardware/board/src/sl_board_control_gpio.o
 .text.sl_board_enable_sensor
                0x00000000       0x64 ./gecko_sdk_4.4.4/hardware/board/src/sl_board_control_gpio.o
 .text.sl_board_disable_sensor
                0x00000000       0x6c ./gecko_sdk_4.4.4/hardware/board/src/sl_board_control_gpio.o
 .text.sl_board_enable_memory
                0x00000000       0x38 ./gecko_sdk_4.4.4/hardware/board/src/sl_board_control_gpio.o
 .text.sl_board_disable_memory
                0x00000000       0x38 ./gecko_sdk_4.4.4/hardware/board/src/sl_board_control_gpio.o
 .text.sl_board_enable_oscillator
                0x00000000       0x20 ./gecko_sdk_4.4.4/hardware/board/src/sl_board_control_gpio.o
 .text.sl_board_disable_oscillator
                0x00000000       0x20 ./gecko_sdk_4.4.4/hardware/board/src/sl_board_control_gpio.o
 .debug_info    0x00000000      0x5db ./gecko_sdk_4.4.4/hardware/board/src/sl_board_control_gpio.o
 .debug_abbrev  0x00000000      0x1a6 ./gecko_sdk_4.4.4/hardware/board/src/sl_board_control_gpio.o
 .debug_loc     0x00000000      0x3f5 ./gecko_sdk_4.4.4/hardware/board/src/sl_board_control_gpio.o
 .debug_aranges
                0x00000000       0x70 ./gecko_sdk_4.4.4/hardware/board/src/sl_board_control_gpio.o
 .debug_ranges  0x00000000       0x60 ./gecko_sdk_4.4.4/hardware/board/src/sl_board_control_gpio.o
 .debug_line    0x00000000      0x516 ./gecko_sdk_4.4.4/hardware/board/src/sl_board_control_gpio.o
 .debug_str     0x00000000      0x6d9 ./gecko_sdk_4.4.4/hardware/board/src/sl_board_control_gpio.o
 .comment       0x00000000       0x46 ./gecko_sdk_4.4.4/hardware/board/src/sl_board_control_gpio.o
 .debug_frame   0x00000000      0x110 ./gecko_sdk_4.4.4/hardware/board/src/sl_board_control_gpio.o
 .ARM.attributes
                0x00000000       0x32 ./gecko_sdk_4.4.4/hardware/board/src/sl_board_control_gpio.o
 .text          0x00000000        0x0 ./gecko_sdk_4.4.4/hardware/board/src/sl_board_init.o
 .data          0x00000000        0x0 ./gecko_sdk_4.4.4/hardware/board/src/sl_board_init.o
 .bss           0x00000000        0x0 ./gecko_sdk_4.4.4/hardware/board/src/sl_board_init.o
 .text          0x00000000        0x0 ./gecko_sdk_4.4.4/platform/CMSIS/RTOS2/Source/os_systick.o
 .data          0x00000000        0x0 ./gecko_sdk_4.4.4/platform/CMSIS/RTOS2/Source/os_systick.o
 .bss           0x00000000        0x0 ./gecko_sdk_4.4.4/platform/CMSIS/RTOS2/Source/os_systick.o
 .text.OS_Tick_Setup
                0x00000000       0x40 ./gecko_sdk_4.4.4/platform/CMSIS/RTOS2/Source/os_systick.o
 .text.OS_Tick_Enable
                0x00000000       0x28 ./gecko_sdk_4.4.4/platform/CMSIS/RTOS2/Source/os_systick.o
 .text.OS_Tick_Disable
                0x00000000       0x2c ./gecko_sdk_4.4.4/platform/CMSIS/RTOS2/Source/os_systick.o
 .text.OS_Tick_AcknowledgeIRQ
                0x00000000        0x8 ./gecko_sdk_4.4.4/platform/CMSIS/RTOS2/Source/os_systick.o
 .text.OS_Tick_GetIRQn
                0x00000000        0x6 ./gecko_sdk_4.4.4/platform/CMSIS/RTOS2/Source/os_systick.o
 .text.OS_Tick_GetClock
                0x00000000        0xc ./gecko_sdk_4.4.4/platform/CMSIS/RTOS2/Source/os_systick.o
 .text.OS_Tick_GetInterval
                0x00000000        0xa ./gecko_sdk_4.4.4/platform/CMSIS/RTOS2/Source/os_systick.o
 .text.OS_Tick_GetCount
                0x00000000        0xc ./gecko_sdk_4.4.4/platform/CMSIS/RTOS2/Source/os_systick.o
 .text.OS_Tick_GetOverflow
                0x00000000       0x10 ./gecko_sdk_4.4.4/platform/CMSIS/RTOS2/Source/os_systick.o
 .bss.os        0x00000000        0x1 ./gecko_sdk_4.4.4/platform/CMSIS/RTOS2/Source/os_systick.o
 .debug_info    0x00000000      0x63e ./gecko_sdk_4.4.4/platform/CMSIS/RTOS2/Source/os_systick.o
 .debug_abbrev  0x00000000      0x19f ./gecko_sdk_4.4.4/platform/CMSIS/RTOS2/Source/os_systick.o
 .debug_loc     0x00000000       0x5d ./gecko_sdk_4.4.4/platform/CMSIS/RTOS2/Source/os_systick.o
 .debug_aranges
                0x00000000       0x60 ./gecko_sdk_4.4.4/platform/CMSIS/RTOS2/Source/os_systick.o
 .debug_ranges  0x00000000       0x50 ./gecko_sdk_4.4.4/platform/CMSIS/RTOS2/Source/os_systick.o
 .debug_line    0x00000000      0x463 ./gecko_sdk_4.4.4/platform/CMSIS/RTOS2/Source/os_systick.o
 .debug_str     0x00000000      0x723 ./gecko_sdk_4.4.4/platform/CMSIS/RTOS2/Source/os_systick.o
 .comment       0x00000000       0x46 ./gecko_sdk_4.4.4/platform/CMSIS/RTOS2/Source/os_systick.o
 .debug_frame   0x00000000       0xa0 ./gecko_sdk_4.4.4/platform/CMSIS/RTOS2/Source/os_systick.o
 .ARM.attributes
                0x00000000       0x32 ./gecko_sdk_4.4.4/platform/CMSIS/RTOS2/Source/os_systick.o
 .text          0x00000000        0x0 ./gecko_sdk_4.4.4/platform/Device/SiliconLabs/EFM32GG11B/Source/startup_efm32gg11b.o
 .data          0x00000000        0x0 ./gecko_sdk_4.4.4/platform/Device/SiliconLabs/EFM32GG11B/Source/startup_efm32gg11b.o
 .bss           0x00000000        0x0 ./gecko_sdk_4.4.4/platform/Device/SiliconLabs/EFM32GG11B/Source/startup_efm32gg11b.o
 .text          0x00000000        0x0 ./gecko_sdk_4.4.4/platform/Device/SiliconLabs/EFM32GG11B/Source/system_efm32gg11b.o
 .data          0x00000000        0x0 ./gecko_sdk_4.4.4/platform/Device/SiliconLabs/EFM32GG11B/Source/system_efm32gg11b.o
 .bss           0x00000000        0x0 ./gecko_sdk_4.4.4/platform/Device/SiliconLabs/EFM32GG11B/Source/system_efm32gg11b.o
 .text.SystemLFXOClockSet
                0x00000000       0x20 ./gecko_sdk_4.4.4/platform/Device/SiliconLabs/EFM32GG11B/Source/system_efm32gg11b.o
 .text          0x00000000        0x0 ./gecko_sdk_4.4.4/platform/common/src/sl_assert.o
 .data          0x00000000        0x0 ./gecko_sdk_4.4.4/platform/common/src/sl_assert.o
 .bss           0x00000000        0x0 ./gecko_sdk_4.4.4/platform/common/src/sl_assert.o
 .text          0x00000000        0x0 ./gecko_sdk_4.4.4/platform/common/src/sl_string.o
 .data          0x00000000        0x0 ./gecko_sdk_4.4.4/platform/common/src/sl_string.o
 .bss           0x00000000        0x0 ./gecko_sdk_4.4.4/platform/common/src/sl_string.o
 .text.sl_strcpy_s
                0x00000000       0x22 ./gecko_sdk_4.4.4/platform/common/src/sl_string.o
 .text.sl_strcat_s
                0x00000000       0x26 ./gecko_sdk_4.4.4/platform/common/src/sl_string.o
 .text.sl_str_is_empty
                0x00000000       0x10 ./gecko_sdk_4.4.4/platform/common/src/sl_string.o
 .text.sl_strcasecmp
                0x00000000       0x44 ./gecko_sdk_4.4.4/platform/common/src/sl_string.o
 .text.sl_memrchr
                0x00000000       0x84 ./gecko_sdk_4.4.4/platform/common/src/sl_string.o
 .text          0x00000000        0x0 ./gecko_sdk_4.4.4/platform/common/src/sl_syscalls.o
 .data          0x00000000        0x0 ./gecko_sdk_4.4.4/platform/common/src/sl_syscalls.o
 .bss           0x00000000        0x0 ./gecko_sdk_4.4.4/platform/common/src/sl_syscalls.o
 .text._gettimeofday
                0x00000000        0x4 ./gecko_sdk_4.4.4/platform/common/src/sl_syscalls.o
 .text          0x00000000        0x0 ./gecko_sdk_4.4.4/platform/common/toolchain/src/sl_memory.o
 .data          0x00000000        0x0 ./gecko_sdk_4.4.4/platform/common/toolchain/src/sl_memory.o
 .bss           0x00000000        0x0 ./gecko_sdk_4.4.4/platform/common/toolchain/src/sl_memory.o
 .text.sl_memory_get_stack_region
                0x00000000       0x10 ./gecko_sdk_4.4.4/platform/common/toolchain/src/sl_memory.o
 .text.sl_memory_get_heap_region
                0x00000000       0x14 ./gecko_sdk_4.4.4/platform/common/toolchain/src/sl_memory.o
 .text          0x00000000        0x0 ./gecko_sdk_4.4.4/platform/emlib/src/em_cmu.o
 .data          0x00000000        0x0 ./gecko_sdk_4.4.4/platform/emlib/src/em_cmu.o
 .bss           0x00000000        0x0 ./gecko_sdk_4.4.4/platform/emlib/src/em_cmu.o
 .text.CMU_HFRCODevinfoGet
                0x00000000      0x100 ./gecko_sdk_4.4.4/platform/emlib/src/em_cmu.o
 .text.CMU_AUXHFRCOBandGet
                0x00000000        0xc ./gecko_sdk_4.4.4/platform/emlib/src/em_cmu.o
 .text.CMU_AUXHFRCOBandSet
                0x00000000      0x13c ./gecko_sdk_4.4.4/platform/emlib/src/em_cmu.o
 .text.CMU_Calibrate
                0x00000000       0x78 ./gecko_sdk_4.4.4/platform/emlib/src/em_cmu.o
 .text.CMU_CalibrateConfig
                0x00000000       0xac ./gecko_sdk_4.4.4/platform/emlib/src/em_cmu.o
 .text.CMU_CalibrateCountGet
                0x00000000       0x24 ./gecko_sdk_4.4.4/platform/emlib/src/em_cmu.o
 .text.CMU_ClockDivSet
                0x00000000        0x6 ./gecko_sdk_4.4.4/platform/emlib/src/em_cmu.o
 .text.sli_em_cmu_SetHFLEConfigSystemCoreClock
                0x00000000        0xe ./gecko_sdk_4.4.4/platform/emlib/src/em_cmu.o
 .text.sli_em_cmu_SetHFLEConfigHFClock
                0x00000000        0xe ./gecko_sdk_4.4.4/platform/emlib/src/em_cmu.o
 .text.sli_em_cmu_HFClockSelectCLKIN0
                0x00000000       0x38 ./gecko_sdk_4.4.4/platform/emlib/src/em_cmu.o
 .text.CMU_LF_ClockPrecisionGet
                0x00000000       0x18 ./gecko_sdk_4.4.4/platform/emlib/src/em_cmu.o
 .text.CMU_HF_ClockPrecisionGet
                0x00000000       0x18 ./gecko_sdk_4.4.4/platform/emlib/src/em_cmu.o
 .text.CMU_DPLLLock
                0x00000000      0x1f0 ./gecko_sdk_4.4.4/platform/emlib/src/em_cmu.o
 .text.CMU_FreezeEnable
                0x00000000       0x20 ./gecko_sdk_4.4.4/platform/emlib/src/em_cmu.o
 .text.CMU_HFRCOBandGet
                0x00000000        0xc ./gecko_sdk_4.4.4/platform/emlib/src/em_cmu.o
 .text.CMU_HFRCOBandSet
                0x00000000      0x124 ./gecko_sdk_4.4.4/platform/emlib/src/em_cmu.o
 .text.CMU_USHFRCOBandGet
                0x00000000        0xc ./gecko_sdk_4.4.4/platform/emlib/src/em_cmu.o
 .text.CMU_USHFRCOFreqGet
                0x00000000        0xc ./gecko_sdk_4.4.4/platform/emlib/src/em_cmu.o
 .text.CMU_LCDClkFDIVGet
                0x00000000        0x4 ./gecko_sdk_4.4.4/platform/emlib/src/em_cmu.o
 .text.CMU_LCDClkFDIVSet
                0x00000000        0x2 ./gecko_sdk_4.4.4/platform/emlib/src/em_cmu.o
 .text.CMU_LFXOPrecisionGet
                0x00000000        0xc ./gecko_sdk_4.4.4/platform/emlib/src/em_cmu.o
 .text.CMU_HFXOPrecisionGet
                0x00000000        0xc ./gecko_sdk_4.4.4/platform/emlib/src/em_cmu.o
 .text.CMU_OscillatorTuningGet
                0x00000000       0x4c ./gecko_sdk_4.4.4/platform/emlib/src/em_cmu.o
 .text.CMU_OscillatorTuningSet
                0x00000000      0x108 ./gecko_sdk_4.4.4/platform/emlib/src/em_cmu.o
 .text.sli_em_cmu_HFClockSelectLFOsc
                0x00000000       0x74 ./gecko_sdk_4.4.4/platform/emlib/src/em_cmu.o
 .text.sli_em_cmu_HFClockSelectHFRCO
                0x00000000       0x78 ./gecko_sdk_4.4.4/platform/emlib/src/em_cmu.o
 .text.sli_em_cmu_HFClockSelectHFRCODIV2
                0x00000000       0x40 ./gecko_sdk_4.4.4/platform/emlib/src/em_cmu.o
 .text.sli_em_cmu_HFClockSelectUSHFRCO
                0x00000000       0x40 ./gecko_sdk_4.4.4/platform/emlib/src/em_cmu.o
 .text.CMU_ClockSelectSet
                0x00000000      0x45c ./gecko_sdk_4.4.4/platform/emlib/src/em_cmu.o
 .text.CMU_HFXOAutostartEnable
                0x00000000       0xa0 ./gecko_sdk_4.4.4/platform/emlib/src/em_cmu.o
 .text.CMU_OscillatorTuningOptimize
                0x00000000       0x30 ./gecko_sdk_4.4.4/platform/emlib/src/em_cmu.o
 .text.CMU_PCNTClockExternalGet
                0x00000000       0x3c ./gecko_sdk_4.4.4/platform/emlib/src/em_cmu.o
 .rodata.CMU_PCNTClockExternalSet.str1.1
                0x00000000       0x61 ./gecko_sdk_4.4.4/platform/emlib/src/em_cmu.o
 .text.CMU_PCNTClockExternalSet
                0x00000000       0x3c ./gecko_sdk_4.4.4/platform/emlib/src/em_cmu.o
 .rodata.hfrcoCtrlTable
                0x00000000      0x180 ./gecko_sdk_4.4.4/platform/emlib/src/em_cmu.o
 .text          0x00000000        0x0 ./gecko_sdk_4.4.4/platform/emlib/src/em_core.o
 .data          0x00000000        0x0 ./gecko_sdk_4.4.4/platform/emlib/src/em_core.o
 .bss           0x00000000        0x0 ./gecko_sdk_4.4.4/platform/emlib/src/em_core.o
 .text.__NVIC_GetPriority
                0x00000000       0x24 ./gecko_sdk_4.4.4/platform/emlib/src/em_core.o
 .text.CORE_CriticalDisableIrq
                0x00000000        0x4 ./gecko_sdk_4.4.4/platform/emlib/src/em_core.o
 .text.CORE_CriticalEnableIrq
                0x00000000        0x4 ./gecko_sdk_4.4.4/platform/emlib/src/em_core.o
 .text.CORE_EnterCritical
                0x00000000        0x8 ./gecko_sdk_4.4.4/platform/emlib/src/em_core.o
 .text.CORE_ExitCritical
                0x00000000        0x6 ./gecko_sdk_4.4.4/platform/emlib/src/em_core.o
 .text.CORE_YieldCritical
                0x00000000       0x12 ./gecko_sdk_4.4.4/platform/emlib/src/em_core.o
 .text.CORE_AtomicDisableIrq
                0x00000000        0x8 ./gecko_sdk_4.4.4/platform/emlib/src/em_core.o
 .text.CORE_AtomicEnableIrq
                0x00000000        0x8 ./gecko_sdk_4.4.4/platform/emlib/src/em_core.o
 .text.CORE_YieldAtomic
                0x00000000       0x18 ./gecko_sdk_4.4.4/platform/emlib/src/em_core.o
 .text.CORE_EnterNvicMask
                0x00000000       0x2c ./gecko_sdk_4.4.4/platform/emlib/src/em_core.o
 .text.CORE_NvicDisableMask
                0x00000000       0x20 ./gecko_sdk_4.4.4/platform/emlib/src/em_core.o
 .text.CORE_NvicEnableMask
                0x00000000       0x20 ./gecko_sdk_4.4.4/platform/emlib/src/em_core.o
 .text.CORE_YieldNvicMask
                0x00000000       0x48 ./gecko_sdk_4.4.4/platform/emlib/src/em_core.o
 .rodata.CORE_NvicMaskSetIRQ.str1.1
                0x00000000       0x30 ./gecko_sdk_4.4.4/platform/emlib/src/em_core.o
 .text.CORE_NvicMaskSetIRQ
                0x00000000       0x30 ./gecko_sdk_4.4.4/platform/emlib/src/em_core.o
 .text.CORE_NvicMaskClearIRQ
                0x00000000       0x34 ./gecko_sdk_4.4.4/platform/emlib/src/em_core.o
 .text.CORE_InIrqContext
                0x00000000       0x14 ./gecko_sdk_4.4.4/platform/emlib/src/em_core.o
 .text.CORE_IrqIsDisabled
                0x00000000       0x1a ./gecko_sdk_4.4.4/platform/emlib/src/em_core.o
 .text.CORE_GetNvicEnabledMask
                0x00000000       0x20 ./gecko_sdk_4.4.4/platform/emlib/src/em_core.o
 .text.CORE_GetNvicMaskDisableState
                0x00000000       0x38 ./gecko_sdk_4.4.4/platform/emlib/src/em_core.o
 .text.CORE_NvicIRQDisabled
                0x00000000       0x34 ./gecko_sdk_4.4.4/platform/emlib/src/em_core.o
 .text.CORE_IrqIsBlocked
                0x00000000       0x6c ./gecko_sdk_4.4.4/platform/emlib/src/em_core.o
 .text.CORE_GetNvicRamTableHandler
                0x00000000       0x2c ./gecko_sdk_4.4.4/platform/emlib/src/em_core.o
 .text.CORE_SetNvicRamTableHandler
                0x00000000       0x30 ./gecko_sdk_4.4.4/platform/emlib/src/em_core.o
 .text.CORE_InitNvicVectorTable
                0x00000000       0xcc ./gecko_sdk_4.4.4/platform/emlib/src/em_core.o
 .text          0x00000000        0x0 ./gecko_sdk_4.4.4/platform/emlib/src/em_emu.o
 .data          0x00000000        0x0 ./gecko_sdk_4.4.4/platform/emlib/src/em_emu.o
 .bss           0x00000000        0x0 ./gecko_sdk_4.4.4/platform/emlib/src/em_emu.o
 .ram           0x00000000       0x18 ./gecko_sdk_4.4.4/platform/emlib/src/em_emu.o
 .text.vmonCalibratedThreshold
                0x00000000       0xb4 ./gecko_sdk_4.4.4/platform/emlib/src/em_emu.o
 .text.vScaleDownEM23Setup
                0x00000000       0x44 ./gecko_sdk_4.4.4/platform/emlib/src/em_emu.o
 .text.vScaleAfterWakeup
                0x00000000       0x2c ./gecko_sdk_4.4.4/platform/emlib/src/em_emu.o
 .text.emState.part.0
                0x00000000       0xe8 ./gecko_sdk_4.4.4/platform/emlib/src/em_emu.o
 .text.emState.constprop.0
                0x00000000       0x48 ./gecko_sdk_4.4.4/platform/emlib/src/em_emu.o
 .text.EMU_EM23Init
                0x00000000       0x34 ./gecko_sdk_4.4.4/platform/emlib/src/em_emu.o
 .text.EMU_EM23PresleepHook
                0x00000000        0x2 ./gecko_sdk_4.4.4/platform/emlib/src/em_emu.o
 .text.EMU_EFPEM23PresleepHook
                0x00000000        0x2 ./gecko_sdk_4.4.4/platform/emlib/src/em_emu.o
 .text.EMU_EM23PostsleepHook
                0x00000000        0x2 ./gecko_sdk_4.4.4/platform/emlib/src/em_emu.o
 .text.EMU_EFPEM23PostsleepHook
                0x00000000        0x2 ./gecko_sdk_4.4.4/platform/emlib/src/em_emu.o
 .text.EMU_EnterEM2
                0x00000000       0x88 ./gecko_sdk_4.4.4/platform/emlib/src/em_emu.o
 .text.EMU_EnterEM3
                0x00000000       0xa0 ./gecko_sdk_4.4.4/platform/emlib/src/em_emu.o
 .text.EMU_Save
                0x00000000        0x4 ./gecko_sdk_4.4.4/platform/emlib/src/em_emu.o
 .text.EMU_Restore
                0x00000000        0x4 ./gecko_sdk_4.4.4/platform/emlib/src/em_emu.o
 .text.EMU_EM4PresleepHook
                0x00000000        0x2 ./gecko_sdk_4.4.4/platform/emlib/src/em_emu.o
 .text.EMU_EFPEM4PresleepHook
                0x00000000        0x2 ./gecko_sdk_4.4.4/platform/emlib/src/em_emu.o
 .text.EMU_EnterEM4
                0x00000000       0x98 ./gecko_sdk_4.4.4/platform/emlib/src/em_emu.o
 .text.EMU_EnterEM4Wait
                0x00000000       0x14 ./gecko_sdk_4.4.4/platform/emlib/src/em_emu.o
 .text.EMU_EnterEM4H
                0x00000000       0x10 ./gecko_sdk_4.4.4/platform/emlib/src/em_emu.o
 .text.EMU_EnterEM4S
                0x00000000       0x10 ./gecko_sdk_4.4.4/platform/emlib/src/em_emu.o
 .text.EMU_MemPwrDown
                0x00000000       0x10 ./gecko_sdk_4.4.4/platform/emlib/src/em_emu.o
 .text.EMU_RamPowerDown
                0x00000000       0xe0 ./gecko_sdk_4.4.4/platform/emlib/src/em_emu.o
 .text.EMU_RamPowerUp
                0x00000000       0x14 ./gecko_sdk_4.4.4/platform/emlib/src/em_emu.o
 .text.EMU_PeripheralRetention
                0x00000000       0x24 ./gecko_sdk_4.4.4/platform/emlib/src/em_emu.o
 .text.EMU_UpdateOscConfig
                0x00000000        0x4 ./gecko_sdk_4.4.4/platform/emlib/src/em_emu.o
 .text.EMU_EM01Init
                0x00000000       0x14 ./gecko_sdk_4.4.4/platform/emlib/src/em_emu.o
 .text.EMU_BUInit
                0x00000000       0x30 ./gecko_sdk_4.4.4/platform/emlib/src/em_emu.o
 .text.EMU_BUDisMaxCompSet
                0x00000000       0x18 ./gecko_sdk_4.4.4/platform/emlib/src/em_emu.o
 .text.EMU_BUBuInactPwrConSet
                0x00000000       0x18 ./gecko_sdk_4.4.4/platform/emlib/src/em_emu.o
 .text.EMU_BUBuActPwrConSet
                0x00000000       0x18 ./gecko_sdk_4.4.4/platform/emlib/src/em_emu.o
 .text.EMU_BUPwrResSet
                0x00000000       0x18 ./gecko_sdk_4.4.4/platform/emlib/src/em_emu.o
 .text.EMU_BUVoutResSet
                0x00000000       0x18 ./gecko_sdk_4.4.4/platform/emlib/src/em_emu.o
 .text.EMU_BUBuVinProbeEnSet
                0x00000000       0x18 ./gecko_sdk_4.4.4/platform/emlib/src/em_emu.o
 .text.EMU_BUStatEnSet
                0x00000000       0x18 ./gecko_sdk_4.4.4/platform/emlib/src/em_emu.o
 .text.EMU_BUEnableSet
                0x00000000       0x18 ./gecko_sdk_4.4.4/platform/emlib/src/em_emu.o
 .text.EMU_DCDCModeEM23Set
                0x00000000       0x2c ./gecko_sdk_4.4.4/platform/emlib/src/em_emu.o
 .text.EMU_DCDCPowerOff
                0x00000000       0x38 ./gecko_sdk_4.4.4/platform/emlib/src/em_emu.o
 .text.EMU_DCDCConductionModeSet
                0x00000000       0x80 ./gecko_sdk_4.4.4/platform/emlib/src/em_emu.o
 .text.EMU_VmonInit
                0x00000000      0x128 ./gecko_sdk_4.4.4/platform/emlib/src/em_emu.o
 .text.EMU_VmonHystInit
                0x00000000       0xac ./gecko_sdk_4.4.4/platform/emlib/src/em_emu.o
 .text.EMU_VmonEnable
                0x00000000       0x20 ./gecko_sdk_4.4.4/platform/emlib/src/em_emu.o
 .text.EMU_VmonChannelStatusGet
                0x00000000       0x34 ./gecko_sdk_4.4.4/platform/emlib/src/em_emu.o
 .text.EMU_TemperatureGet
                0x00000000       0x64 ./gecko_sdk_4.4.4/platform/emlib/src/em_emu.o
 .rodata.CSWTCH.144
                0x00000000        0x6 ./gecko_sdk_4.4.4/platform/emlib/src/em_emu.o
 .bss.hfrcoCtrl.0
                0x00000000        0x4 ./gecko_sdk_4.4.4/platform/emlib/src/em_emu.o
 .bss.vScaleStatus.1
                0x00000000        0x1 ./gecko_sdk_4.4.4/platform/emlib/src/em_emu.o
 .bss.hfClock.2
                0x00000000        0x1 ./gecko_sdk_4.4.4/platform/emlib/src/em_emu.o
 .bss.cmuStatus.3
                0x00000000        0x4 ./gecko_sdk_4.4.4/platform/emlib/src/em_emu.o
 .text          0x00000000        0x0 ./gecko_sdk_4.4.4/platform/emlib/src/em_gpio.o
 .data          0x00000000        0x0 ./gecko_sdk_4.4.4/platform/emlib/src/em_gpio.o
 .bss           0x00000000        0x0 ./gecko_sdk_4.4.4/platform/emlib/src/em_gpio.o
 .rodata.BUS_RegBitWrite.str1.1
                0x00000000       0x61 ./gecko_sdk_4.4.4/platform/emlib/src/em_gpio.o
 .text.BUS_RegBitWrite
                0x00000000       0x2c ./gecko_sdk_4.4.4/platform/emlib/src/em_gpio.o
 .rodata.GPIO_PinOutSet.str1.1
                0x00000000       0x62 ./gecko_sdk_4.4.4/platform/emlib/src/em_gpio.o
 .text.GPIO_PinOutSet
                0x00000000       0x3c ./gecko_sdk_4.4.4/platform/emlib/src/em_gpio.o
 .text.GPIO_PinOutClear
                0x00000000       0x3c ./gecko_sdk_4.4.4/platform/emlib/src/em_gpio.o
 .text.BUS_RegMaskedWrite
                0x00000000       0x1e ./gecko_sdk_4.4.4/platform/emlib/src/em_gpio.o
 .rodata.GPIO_DbgLocationSet.str1.1
                0x00000000       0x30 ./gecko_sdk_4.4.4/platform/emlib/src/em_gpio.o
 .text.GPIO_DbgLocationSet
                0x00000000       0x2c ./gecko_sdk_4.4.4/platform/emlib/src/em_gpio.o
 .text.GPIO_DriveStrengthSet
                0x00000000       0x38 ./gecko_sdk_4.4.4/platform/emlib/src/em_gpio.o
 .text.GPIO_ExtIntConfig
                0x00000000       0xd0 ./gecko_sdk_4.4.4/platform/emlib/src/em_gpio.o
 .text.GPIO_PinModeSet
                0x00000000       0x8c ./gecko_sdk_4.4.4/platform/emlib/src/em_gpio.o
 .text.GPIO_PinModeGet
                0x00000000       0x44 ./gecko_sdk_4.4.4/platform/emlib/src/em_gpio.o
 .text.GPIO_EM4EnablePinWakeup
                0x00000000       0x78 ./gecko_sdk_4.4.4/platform/emlib/src/em_gpio.o
 .text.GPIO_EM4WUExtIntConfig
                0x00000000       0x5c ./gecko_sdk_4.4.4/platform/emlib/src/em_gpio.o
 .debug_info    0x00000000     0x1069 ./gecko_sdk_4.4.4/platform/emlib/src/em_gpio.o
 .debug_abbrev  0x00000000      0x32e ./gecko_sdk_4.4.4/platform/emlib/src/em_gpio.o
 .debug_loc     0x00000000      0xa86 ./gecko_sdk_4.4.4/platform/emlib/src/em_gpio.o
 .debug_aranges
                0x00000000       0x70 ./gecko_sdk_4.4.4/platform/emlib/src/em_gpio.o
 .debug_ranges  0x00000000       0xd0 ./gecko_sdk_4.4.4/platform/emlib/src/em_gpio.o
 .debug_line    0x00000000      0x7a4 ./gecko_sdk_4.4.4/platform/emlib/src/em_gpio.o
 .debug_str     0x00000000      0x89b ./gecko_sdk_4.4.4/platform/emlib/src/em_gpio.o
 .comment       0x00000000       0x46 ./gecko_sdk_4.4.4/platform/emlib/src/em_gpio.o
 .debug_frame   0x00000000      0x190 ./gecko_sdk_4.4.4/platform/emlib/src/em_gpio.o
 .ARM.attributes
                0x00000000       0x32 ./gecko_sdk_4.4.4/platform/emlib/src/em_gpio.o
 .text          0x00000000        0x0 ./gecko_sdk_4.4.4/platform/emlib/src/em_msc.o
 .data          0x00000000        0x0 ./gecko_sdk_4.4.4/platform/emlib/src/em_msc.o
 .bss           0x00000000        0x0 ./gecko_sdk_4.4.4/platform/emlib/src/em_msc.o
 .ram           0x00000000       0x4c ./gecko_sdk_4.4.4/platform/emlib/src/em_msc.o
 .rodata.MSC_Init.str1.1
                0x00000000       0x2f ./gecko_sdk_4.4.4/platform/emlib/src/em_msc.o
 .text.MSC_Init
                0x00000000       0x44 ./gecko_sdk_4.4.4/platform/emlib/src/em_msc.o
 .text.MSC_Deinit
                0x00000000       0x12 ./gecko_sdk_4.4.4/platform/emlib/src/em_msc.o
 .text.MSC_ExecConfigSet
                0x00000000       0x38 ./gecko_sdk_4.4.4/platform/emlib/src/em_msc.o
 .text.MSC_LoadVerifyAddress
                0x00000000       0x30 ./gecko_sdk_4.4.4/platform/emlib/src/em_msc.o
 .text.MSC_LoadWriteData
                0x00000000       0x6c ./gecko_sdk_4.4.4/platform/emlib/src/em_msc.o
 .text.MSC_WriteWordI
                0x00000000       0xd4 ./gecko_sdk_4.4.4/platform/emlib/src/em_msc.o
 .text.MSC_ErasePage
                0x00000000       0xd4 ./gecko_sdk_4.4.4/platform/emlib/src/em_msc.o
 .text.MSC_WriteWord
                0x00000000        0x4 ./gecko_sdk_4.4.4/platform/emlib/src/em_msc.o
 .text.MSC_WriteWordFast
                0x00000000        0x4 ./gecko_sdk_4.4.4/platform/emlib/src/em_msc.o
 .text.MSC_WriteWordDma
                0x00000000      0x108 ./gecko_sdk_4.4.4/platform/emlib/src/em_msc.o
 .text.MSC_EccConfigSet
                0x00000000      0x1a0 ./gecko_sdk_4.4.4/platform/emlib/src/em_msc.o
 .rodata.eccBankTbl
                0x00000000       0x20 ./gecko_sdk_4.4.4/platform/emlib/src/em_msc.o
 .debug_info    0x00000000     0x17bd ./gecko_sdk_4.4.4/platform/emlib/src/em_msc.o
 .debug_abbrev  0x00000000      0x3b8 ./gecko_sdk_4.4.4/platform/emlib/src/em_msc.o
 .debug_loc     0x00000000      0xb71 ./gecko_sdk_4.4.4/platform/emlib/src/em_msc.o
 .debug_aranges
                0x00000000       0x78 ./gecko_sdk_4.4.4/platform/emlib/src/em_msc.o
 .debug_ranges  0x00000000      0x110 ./gecko_sdk_4.4.4/platform/emlib/src/em_msc.o
 .debug_line    0x00000000      0xc45 ./gecko_sdk_4.4.4/platform/emlib/src/em_msc.o
 .debug_str     0x00000000      0xdca ./gecko_sdk_4.4.4/platform/emlib/src/em_msc.o
 .comment       0x00000000       0x46 ./gecko_sdk_4.4.4/platform/emlib/src/em_msc.o
 .debug_frame   0x00000000      0x14c ./gecko_sdk_4.4.4/platform/emlib/src/em_msc.o
 .ARM.attributes
                0x00000000       0x32 ./gecko_sdk_4.4.4/platform/emlib/src/em_msc.o
 .text          0x00000000        0x0 ./gecko_sdk_4.4.4/platform/emlib/src/em_system.o
 .data          0x00000000        0x0 ./gecko_sdk_4.4.4/platform/emlib/src/em_system.o
 .bss           0x00000000        0x0 ./gecko_sdk_4.4.4/platform/emlib/src/em_system.o
 .rodata.SYSTEM_ChipRevisionGet.str1.1
                0x00000000       0x32 ./gecko_sdk_4.4.4/platform/emlib/src/em_system.o
 .text.SYSTEM_ChipRevisionGet
                0x00000000       0x50 ./gecko_sdk_4.4.4/platform/emlib/src/em_system.o
 .text.SYSTEM_GetCalibrationValue
                0x00000000       0x30 ./gecko_sdk_4.4.4/platform/emlib/src/em_system.o
 .text.SYSTEM_GetSecurityCapability
                0x00000000        0x4 ./gecko_sdk_4.4.4/platform/emlib/src/em_system.o
 .text.SYSTEM_GetUnique
                0x00000000       0x10 ./gecko_sdk_4.4.4/platform/emlib/src/em_system.o
 .text.SYSTEM_GetProdRev
                0x00000000       0x10 ./gecko_sdk_4.4.4/platform/emlib/src/em_system.o
 .text.SYSTEM_GetSRAMBaseAddress
                0x00000000        0x6 ./gecko_sdk_4.4.4/platform/emlib/src/em_system.o
 .text.SYSTEM_GetSRAMSize
                0x00000000       0x10 ./gecko_sdk_4.4.4/platform/emlib/src/em_system.o
 .text.SYSTEM_GetFlashSize
                0x00000000       0x10 ./gecko_sdk_4.4.4/platform/emlib/src/em_system.o
 .text.SYSTEM_GetFlashPageSize
                0x00000000       0x18 ./gecko_sdk_4.4.4/platform/emlib/src/em_system.o
 .text.SYSTEM_GetPartNumber
                0x00000000       0x10 ./gecko_sdk_4.4.4/platform/emlib/src/em_system.o
 .text.SYSTEM_GetCalibrationTemperature
                0x00000000       0x10 ./gecko_sdk_4.4.4/platform/emlib/src/em_system.o
 .text.SYSTEM_GetFamily
                0x00000000       0x10 ./gecko_sdk_4.4.4/platform/emlib/src/em_system.o
 .debug_info    0x00000000      0xdd4 ./gecko_sdk_4.4.4/platform/emlib/src/em_system.o
 .debug_abbrev  0x00000000      0x26a ./gecko_sdk_4.4.4/platform/emlib/src/em_system.o
 .debug_loc     0x00000000      0x19b ./gecko_sdk_4.4.4/platform/emlib/src/em_system.o
 .debug_aranges
                0x00000000       0x78 ./gecko_sdk_4.4.4/platform/emlib/src/em_system.o
 .debug_ranges  0x00000000       0x68 ./gecko_sdk_4.4.4/platform/emlib/src/em_system.o
 .debug_line    0x00000000      0x4ed ./gecko_sdk_4.4.4/platform/emlib/src/em_system.o
 .debug_str     0x00000000      0xf78 ./gecko_sdk_4.4.4/platform/emlib/src/em_system.o
 .comment       0x00000000       0x46 ./gecko_sdk_4.4.4/platform/emlib/src/em_system.o
 .debug_frame   0x00000000       0xe0 ./gecko_sdk_4.4.4/platform/emlib/src/em_system.o
 .ARM.attributes
                0x00000000       0x32 ./gecko_sdk_4.4.4/platform/emlib/src/em_system.o
 .text          0x00000000        0x0 ./gecko_sdk_4.4.4/platform/service/device_init/src/sl_device_init_dcdc_s1.o
 .data          0x00000000        0x0 ./gecko_sdk_4.4.4/platform/service/device_init/src/sl_device_init_dcdc_s1.o
 .bss           0x00000000        0x0 ./gecko_sdk_4.4.4/platform/service/device_init/src/sl_device_init_dcdc_s1.o
 .text          0x00000000        0x0 ./gecko_sdk_4.4.4/platform/service/device_init/src/sl_device_init_emu_s1.o
 .data          0x00000000        0x0 ./gecko_sdk_4.4.4/platform/service/device_init/src/sl_device_init_emu_s1.o
 .bss           0x00000000        0x0 ./gecko_sdk_4.4.4/platform/service/device_init/src/sl_device_init_emu_s1.o
 .text          0x00000000        0x0 ./gecko_sdk_4.4.4/platform/service/device_init/src/sl_device_init_hfxo_s1.o
 .data          0x00000000        0x0 ./gecko_sdk_4.4.4/platform/service/device_init/src/sl_device_init_hfxo_s1.o
 .bss           0x00000000        0x0 ./gecko_sdk_4.4.4/platform/service/device_init/src/sl_device_init_hfxo_s1.o
 .text          0x00000000        0x0 ./gecko_sdk_4.4.4/platform/service/device_init/src/sl_device_init_lfxo_s1.o
 .data          0x00000000        0x0 ./gecko_sdk_4.4.4/platform/service/device_init/src/sl_device_init_lfxo_s1.o
 .bss           0x00000000        0x0 ./gecko_sdk_4.4.4/platform/service/device_init/src/sl_device_init_lfxo_s1.o
 .text          0x00000000        0x0 ./gecko_sdk_4.4.4/platform/service/device_init/src/sl_device_init_nvic.o
 .data          0x00000000        0x0 ./gecko_sdk_4.4.4/platform/service/device_init/src/sl_device_init_nvic.o
 .bss           0x00000000        0x0 ./gecko_sdk_4.4.4/platform/service/device_init/src/sl_device_init_nvic.o
 .text          0x00000000        0x0 ./gecko_sdk_4.4.4/platform/service/system/src/sl_system_init.o
 .data          0x00000000        0x0 ./gecko_sdk_4.4.4/platform/service/system/src/sl_system_init.o
 .bss           0x00000000        0x0 ./gecko_sdk_4.4.4/platform/service/system/src/sl_system_init.o
 .text          0x00000000        0x0 ./gecko_sdk_4.4.4/platform/service/system/src/sl_system_kernel.o
 .data          0x00000000        0x0 ./gecko_sdk_4.4.4/platform/service/system/src/sl_system_kernel.o
 .bss           0x00000000        0x0 ./gecko_sdk_4.4.4/platform/service/system/src/sl_system_kernel.o
 .text          0x00000000        0x0 ./gecko_sdk_4.4.4/platform/service/udelay/src/sl_udelay.o
 .data          0x00000000        0x0 ./gecko_sdk_4.4.4/platform/service/udelay/src/sl_udelay.o
 .bss           0x00000000        0x0 ./gecko_sdk_4.4.4/platform/service/udelay/src/sl_udelay.o
 .rodata.sl_udelay_wait.str1.1
                0x00000000       0x3b ./gecko_sdk_4.4.4/platform/service/udelay/src/sl_udelay.o
 .text.sl_udelay_wait
                0x00000000       0x54 ./gecko_sdk_4.4.4/platform/service/udelay/src/sl_udelay.o
 .debug_info    0x00000000      0x17e ./gecko_sdk_4.4.4/platform/service/udelay/src/sl_udelay.o
 .debug_abbrev  0x00000000       0xf3 ./gecko_sdk_4.4.4/platform/service/udelay/src/sl_udelay.o
 .debug_loc     0x00000000      0x1a5 ./gecko_sdk_4.4.4/platform/service/udelay/src/sl_udelay.o
 .debug_aranges
                0x00000000       0x20 ./gecko_sdk_4.4.4/platform/service/udelay/src/sl_udelay.o
 .debug_ranges  0x00000000       0x10 ./gecko_sdk_4.4.4/platform/service/udelay/src/sl_udelay.o
 .debug_line    0x00000000      0x2c4 ./gecko_sdk_4.4.4/platform/service/udelay/src/sl_udelay.o
 .debug_str     0x00000000      0x249 ./gecko_sdk_4.4.4/platform/service/udelay/src/sl_udelay.o
 .comment       0x00000000       0x46 ./gecko_sdk_4.4.4/platform/service/udelay/src/sl_udelay.o
 .debug_frame   0x00000000       0x38 ./gecko_sdk_4.4.4/platform/service/udelay/src/sl_udelay.o
 .ARM.attributes
                0x00000000       0x32 ./gecko_sdk_4.4.4/platform/service/udelay/src/sl_udelay.o
 .text          0x00000000        0x8 ./gecko_sdk_4.4.4/platform/service/udelay/src/sl_udelay_armv6m_gcc.o
 .data          0x00000000        0x0 ./gecko_sdk_4.4.4/platform/service/udelay/src/sl_udelay_armv6m_gcc.o
 .bss           0x00000000        0x0 ./gecko_sdk_4.4.4/platform/service/udelay/src/sl_udelay_armv6m_gcc.o
 .debug_line    0x00000000       0x78 ./gecko_sdk_4.4.4/platform/service/udelay/src/sl_udelay_armv6m_gcc.o
 .debug_info    0x00000000       0x26 ./gecko_sdk_4.4.4/platform/service/udelay/src/sl_udelay_armv6m_gcc.o
 .debug_abbrev  0x00000000       0x14 ./gecko_sdk_4.4.4/platform/service/udelay/src/sl_udelay_armv6m_gcc.o
 .debug_aranges
                0x00000000       0x20 ./gecko_sdk_4.4.4/platform/service/udelay/src/sl_udelay_armv6m_gcc.o
 .debug_str     0x00000000       0xa3 ./gecko_sdk_4.4.4/platform/service/udelay/src/sl_udelay_armv6m_gcc.o
 .ARM.attributes
                0x00000000       0x20 ./gecko_sdk_4.4.4/platform/service/udelay/src/sl_udelay_armv6m_gcc.o
 .text          0x00000000        0x0 ./gecko_sdk_4.4.4/protocol/usb/src/sl_usbd_class_vendor.o
 .data          0x00000000        0x0 ./gecko_sdk_4.4.4/protocol/usb/src/sl_usbd_class_vendor.o
 .bss           0x00000000        0x0 ./gecko_sdk_4.4.4/protocol/usb/src/sl_usbd_class_vendor.o
 .text.usbd_vendor_read_bulk_async_complete
                0x00000000       0x18 ./gecko_sdk_4.4.4/protocol/usb/src/sl_usbd_class_vendor.o
 .text.usbd_vendor_write_bulk_async_complete
                0x00000000       0x18 ./gecko_sdk_4.4.4/protocol/usb/src/sl_usbd_class_vendor.o
 .text.usbd_vendor_read_interrupt_async_complete
                0x00000000       0x18 ./gecko_sdk_4.4.4/protocol/usb/src/sl_usbd_class_vendor.o
 .text.usbd_vendor_write_interrupt_async_complete
                0x00000000       0x18 ./gecko_sdk_4.4.4/protocol/usb/src/sl_usbd_class_vendor.o
 .text.sl_usbd_vendor_is_enabled
                0x00000000       0x38 ./gecko_sdk_4.4.4/protocol/usb/src/sl_usbd_class_vendor.o
 .text.sl_usbd_vendor_abort_read_bulk
                0x00000000       0x34 ./gecko_sdk_4.4.4/protocol/usb/src/sl_usbd_class_vendor.o
 .text.sl_usbd_vendor_abort_write_bulk
                0x00000000       0x34 ./gecko_sdk_4.4.4/protocol/usb/src/sl_usbd_class_vendor.o
 .text.sl_usbd_vendor_abort_read_interrupt
                0x00000000       0x34 ./gecko_sdk_4.4.4/protocol/usb/src/sl_usbd_class_vendor.o
 .text.sl_usbd_vendor_abort_write_interrupt
                0x00000000       0x34 ./gecko_sdk_4.4.4/protocol/usb/src/sl_usbd_class_vendor.o
 .text.sl_usbd_vendor_read_bulk_sync
                0x00000000       0x6c ./gecko_sdk_4.4.4/protocol/usb/src/sl_usbd_class_vendor.o
 .text.sl_usbd_vendor_write_bulk_sync
                0x00000000       0x70 ./gecko_sdk_4.4.4/protocol/usb/src/sl_usbd_class_vendor.o
 .text.sl_usbd_vendor_read_bulk_async
                0x00000000       0x78 ./gecko_sdk_4.4.4/protocol/usb/src/sl_usbd_class_vendor.o
 .text.sl_usbd_vendor_write_bulk_async
                0x00000000       0x80 ./gecko_sdk_4.4.4/protocol/usb/src/sl_usbd_class_vendor.o
 .text.sl_usbd_vendor_read_interrupt_sync
                0x00000000       0x6c ./gecko_sdk_4.4.4/protocol/usb/src/sl_usbd_class_vendor.o
 .text.sl_usbd_vendor_write_interrupt_sync
                0x00000000       0x70 ./gecko_sdk_4.4.4/protocol/usb/src/sl_usbd_class_vendor.o
 .text.sl_usbd_vendor_read_interrupt_async
                0x00000000       0x78 ./gecko_sdk_4.4.4/protocol/usb/src/sl_usbd_class_vendor.o
 .text.sl_usbd_vendor_write_interrupt_async
                0x00000000       0x80 ./gecko_sdk_4.4.4/protocol/usb/src/sl_usbd_class_vendor.o
 .text          0x00000000        0x0 ./gecko_sdk_4.4.4/protocol/usb/src/sl_usbd_core.o
 .data          0x00000000        0x0 ./gecko_sdk_4.4.4/protocol/usb/src/sl_usbd_core.o
 .bss           0x00000000        0x0 ./gecko_sdk_4.4.4/protocol/usb/src/sl_usbd_core.o
 .text.sl_usbd_core_stop_device
                0x00000000       0x30 ./gecko_sdk_4.4.4/protocol/usb/src/sl_usbd_core.o
 .text.sl_usbd_core_get_device_speed
                0x00000000       0x20 ./gecko_sdk_4.4.4/protocol/usb/src/sl_usbd_core.o
 .text.sl_usbd_core_set_device_self_power
                0x00000000       0x1c ./gecko_sdk_4.4.4/protocol/usb/src/sl_usbd_core.o
 .text.sl_usbd_core_set_device_microsoft_vendor_code
                0x00000000       0x1c ./gecko_sdk_4.4.4/protocol/usb/src/sl_usbd_core.o
 .text.sl_usbd_core_get_device_configuration
                0x00000000       0x18 ./gecko_sdk_4.4.4/protocol/usb/src/sl_usbd_core.o
 .text.sl_usbd_core_get_device_frame_number
                0x00000000       0x24 ./gecko_sdk_4.4.4/protocol/usb/src/sl_usbd_core.o
 .text.sl_usbd_core_add_alt_interface
                0x00000000       0xb8 ./gecko_sdk_4.4.4/protocol/usb/src/sl_usbd_core.o
 .text.sl_usbd_core_add_interface_group
                0x00000000      0x13c ./gecko_sdk_4.4.4/protocol/usb/src/sl_usbd_core.o
 .text.sl_usbd_core_get_device_descriptor
                0x00000000       0x48 ./gecko_sdk_4.4.4/protocol/usb/src/sl_usbd_core.o
 .text.sl_usbd_core_get_configuration_descriptor
                0x00000000       0x4c ./gecko_sdk_4.4.4/protocol/usb/src/sl_usbd_core.o
 .text.sl_usbd_core_get_string_descriptor
                0x00000000       0x4c ./gecko_sdk_4.4.4/protocol/usb/src/sl_usbd_core.o
 .text.sl_usbd_core_add_string
                0x00000000       0x18 ./gecko_sdk_4.4.4/protocol/usb/src/sl_usbd_core.o
 .text.sl_usbd_core_get_string_index
                0x00000000       0x18 ./gecko_sdk_4.4.4/protocol/usb/src/sl_usbd_core.o
 .text.sl_usbd_core_write_24b_to_descriptor_buf
                0x00000000       0x2c ./gecko_sdk_4.4.4/protocol/usb/src/sl_usbd_core.o
 .text.sl_usbd_core_get_max_phy_endpoint_number
                0x00000000       0x1c ./gecko_sdk_4.4.4/protocol/usb/src/sl_usbd_core.o
 .text.sli_usbd_core_high_speed_event
                0x00000000        0xc ./gecko_sdk_4.4.4/protocol/usb/src/sl_usbd_core.o
 .text          0x00000000        0x0 ./gecko_sdk_4.4.4/protocol/usb/src/sl_usbd_core_ep.o
 .data          0x00000000        0x0 ./gecko_sdk_4.4.4/protocol/usb/src/sl_usbd_core_ep.o
 .bss           0x00000000        0x0 ./gecko_sdk_4.4.4/protocol/usb/src/sl_usbd_core_ep.o
 .text.usbd_core_endpoint_read
                0x00000000      0x134 ./gecko_sdk_4.4.4/protocol/usb/src/sl_usbd_core_ep.o
 .text.sl_usbd_core_read_bulk_sync
                0x00000000       0xa8 ./gecko_sdk_4.4.4/protocol/usb/src/sl_usbd_core_ep.o
 .text.sl_usbd_core_read_bulk_async
                0x00000000       0x9c ./gecko_sdk_4.4.4/protocol/usb/src/sl_usbd_core_ep.o
 .text.sl_usbd_core_write_bulk_sync
                0x00000000       0xac ./gecko_sdk_4.4.4/protocol/usb/src/sl_usbd_core_ep.o
 .text.sl_usbd_core_write_bulk_async
                0x00000000       0xa0 ./gecko_sdk_4.4.4/protocol/usb/src/sl_usbd_core_ep.o
 .text.sl_usbd_core_read_interrupt_sync
                0x00000000       0xa8 ./gecko_sdk_4.4.4/protocol/usb/src/sl_usbd_core_ep.o
 .text.sl_usbd_core_read_interrupt_async
                0x00000000       0x9c ./gecko_sdk_4.4.4/protocol/usb/src/sl_usbd_core_ep.o
 .text.sl_usbd_core_write_interrupt_sync
                0x00000000       0xac ./gecko_sdk_4.4.4/protocol/usb/src/sl_usbd_core_ep.o
 .text.sl_usbd_core_write_interrupt_async
                0x00000000       0xa0 ./gecko_sdk_4.4.4/protocol/usb/src/sl_usbd_core_ep.o
 .text.sl_usbd_core_read_control_sync
                0x00000000       0x90 ./gecko_sdk_4.4.4/protocol/usb/src/sl_usbd_core_ep.o
 .text.sl_usbd_core_get_max_endpoint_packet_size
                0x00000000       0x34 ./gecko_sdk_4.4.4/protocol/usb/src/sl_usbd_core_ep.o
 .text.sl_usbd_core_get_max_open_endpoint_number
                0x00000000       0x18 ./gecko_sdk_4.4.4/protocol/usb/src/sl_usbd_core_ep.o
 .text.sl_usbd_core_abort_endpoint
                0x00000000       0x60 ./gecko_sdk_4.4.4/protocol/usb/src/sl_usbd_core_ep.o
 .text.sl_usbd_core_endpoint_write_complete_extended
                0x00000000       0x3c ./gecko_sdk_4.4.4/protocol/usb/src/sl_usbd_core_ep.o
 .text          0x00000000        0x0 ./gecko_sdk_4.4.4/protocol/usb/src/sl_usbd_core_os.o
 .data          0x00000000        0x0 ./gecko_sdk_4.4.4/protocol/usb/src/sl_usbd_core_os.o
 .bss           0x00000000        0x0 ./gecko_sdk_4.4.4/protocol/usb/src/sl_usbd_core_os.o
 .text          0x00000000        0x0 ./gecko_sdk_4.4.4/protocol/usb/src/sl_usbd_driver_dwc_otg_fs.o
 .data          0x00000000        0x0 ./gecko_sdk_4.4.4/protocol/usb/src/sl_usbd_driver_dwc_otg_fs.o
 .bss           0x00000000        0x0 ./gecko_sdk_4.4.4/protocol/usb/src/sl_usbd_driver_dwc_otg_fs.o
 .text.sli_usbd_driver_stop
                0x00000000       0xc0 ./gecko_sdk_4.4.4/protocol/usb/src/sl_usbd_driver_dwc_otg_fs.o
 .text.sli_usbd_driver_get_frame_number
                0x00000000       0x1c ./gecko_sdk_4.4.4/protocol/usb/src/sl_usbd_driver_dwc_otg_fs.o
 .text          0x00000000        0x0 ./gecko_sdk_4.4.4/util/silicon_labs/silabs_core/memory_manager/sl_malloc.o
 .data          0x00000000        0x0 ./gecko_sdk_4.4.4/util/silicon_labs/silabs_core/memory_manager/sl_malloc.o
 .bss           0x00000000        0x0 ./gecko_sdk_4.4.4/util/silicon_labs/silabs_core/memory_manager/sl_malloc.o
 .text.sl_malloc
                0x00000000       0x1c ./gecko_sdk_4.4.4/util/silicon_labs/silabs_core/memory_manager/sl_malloc.o
 .text.sl_calloc
                0x00000000       0x20 ./gecko_sdk_4.4.4/util/silicon_labs/silabs_core/memory_manager/sl_malloc.o
 .text.sl_realloc
                0x00000000       0x20 ./gecko_sdk_4.4.4/util/silicon_labs/silabs_core/memory_manager/sl_malloc.o
 .text.sl_free  0x00000000       0x1a ./gecko_sdk_4.4.4/util/silicon_labs/silabs_core/memory_manager/sl_malloc.o
 .debug_info    0x00000000      0x36b ./gecko_sdk_4.4.4/util/silicon_labs/silabs_core/memory_manager/sl_malloc.o
 .debug_abbrev  0x00000000      0x16d ./gecko_sdk_4.4.4/util/silicon_labs/silabs_core/memory_manager/sl_malloc.o
 .debug_loc     0x00000000      0x293 ./gecko_sdk_4.4.4/util/silicon_labs/silabs_core/memory_manager/sl_malloc.o
 .debug_aranges
                0x00000000       0x38 ./gecko_sdk_4.4.4/util/silicon_labs/silabs_core/memory_manager/sl_malloc.o
 .debug_ranges  0x00000000       0x28 ./gecko_sdk_4.4.4/util/silicon_labs/silabs_core/memory_manager/sl_malloc.o
 .debug_line    0x00000000      0x38f ./gecko_sdk_4.4.4/util/silicon_labs/silabs_core/memory_manager/sl_malloc.o
 .debug_str     0x00000000      0x291 ./gecko_sdk_4.4.4/util/silicon_labs/silabs_core/memory_manager/sl_malloc.o
 .comment       0x00000000       0x46 ./gecko_sdk_4.4.4/util/silicon_labs/silabs_core/memory_manager/sl_malloc.o
 .debug_frame   0x00000000       0x88 ./gecko_sdk_4.4.4/util/silicon_labs/silabs_core/memory_manager/sl_malloc.o
 .ARM.attributes
                0x00000000       0x32 ./gecko_sdk_4.4.4/util/silicon_labs/silabs_core/memory_manager/sl_malloc.o
 .text          0x00000000        0x0 ./gecko_sdk_4.4.4/util/third_party/freertos/cmsis/Source/cmsis_os2.o
 .data          0x00000000        0x0 ./gecko_sdk_4.4.4/util/third_party/freertos/cmsis/Source/cmsis_os2.o
 .bss           0x00000000        0x0 ./gecko_sdk_4.4.4/util/third_party/freertos/cmsis/Source/cmsis_os2.o
 .text.TimerCallback
                0x00000000       0x14 ./gecko_sdk_4.4.4/util/third_party/freertos/cmsis/Source/cmsis_os2.o
 .rodata.osKernelGetInfo.str1.1
                0x00000000       0x11 ./gecko_sdk_4.4.4/util/third_party/freertos/cmsis/Source/cmsis_os2.o
 .text.osKernelGetInfo
                0x00000000       0x2c ./gecko_sdk_4.4.4/util/third_party/freertos/cmsis/Source/cmsis_os2.o
 .text.osKernelGetState
                0x00000000       0x20 ./gecko_sdk_4.4.4/util/third_party/freertos/cmsis/Source/cmsis_os2.o
 .text.osKernelLock
                0x00000000       0x44 ./gecko_sdk_4.4.4/util/third_party/freertos/cmsis/Source/cmsis_os2.o
 .text.osKernelUnlock
                0x00000000       0x50 ./gecko_sdk_4.4.4/util/third_party/freertos/cmsis/Source/cmsis_os2.o
 .text.osKernelRestoreLock
                0x00000000       0x5c ./gecko_sdk_4.4.4/util/third_party/freertos/cmsis/Source/cmsis_os2.o
 .text.osKernelGetTickCount
                0x00000000       0x28 ./gecko_sdk_4.4.4/util/third_party/freertos/cmsis/Source/cmsis_os2.o
 .text.osKernelGetSysTimerCount
                0x00000000       0x40 ./gecko_sdk_4.4.4/util/third_party/freertos/cmsis/Source/cmsis_os2.o
 .text.osKernelGetSysTimerFreq
                0x00000000        0xc ./gecko_sdk_4.4.4/util/third_party/freertos/cmsis/Source/cmsis_os2.o
 .text.osThreadGetName
                0x00000000       0x28 ./gecko_sdk_4.4.4/util/third_party/freertos/cmsis/Source/cmsis_os2.o
 .text.osThreadGetId
                0x00000000        0x4 ./gecko_sdk_4.4.4/util/third_party/freertos/cmsis/Source/cmsis_os2.o
 .text.osThreadGetState
                0x00000000       0x3c ./gecko_sdk_4.4.4/util/third_party/freertos/cmsis/Source/cmsis_os2.o
 .text.osThreadGetStackSpace
                0x00000000       0x30 ./gecko_sdk_4.4.4/util/third_party/freertos/cmsis/Source/cmsis_os2.o
 .text.osThreadSetPriority
                0x00000000       0x3c ./gecko_sdk_4.4.4/util/third_party/freertos/cmsis/Source/cmsis_os2.o
 .text.osThreadGetPriority
                0x00000000       0x2c ./gecko_sdk_4.4.4/util/third_party/freertos/cmsis/Source/cmsis_os2.o
 .text.osThreadYield
                0x00000000       0x3c ./gecko_sdk_4.4.4/util/third_party/freertos/cmsis/Source/cmsis_os2.o
 .text.osThreadSuspend
                0x00000000       0x38 ./gecko_sdk_4.4.4/util/third_party/freertos/cmsis/Source/cmsis_os2.o
 .text.osThreadResume
                0x00000000       0x38 ./gecko_sdk_4.4.4/util/third_party/freertos/cmsis/Source/cmsis_os2.o
 .text.osThreadExit
                0x00000000        0xa ./gecko_sdk_4.4.4/util/third_party/freertos/cmsis/Source/cmsis_os2.o
 .text.osThreadTerminate
                0x00000000       0x4c ./gecko_sdk_4.4.4/util/third_party/freertos/cmsis/Source/cmsis_os2.o
 .text.osThreadGetCount
                0x00000000       0x28 ./gecko_sdk_4.4.4/util/third_party/freertos/cmsis/Source/cmsis_os2.o
 .text.osThreadEnumerate
                0x00000000       0x84 ./gecko_sdk_4.4.4/util/third_party/freertos/cmsis/Source/cmsis_os2.o
 .text.osThreadFlagsSet
                0x00000000       0x9c ./gecko_sdk_4.4.4/util/third_party/freertos/cmsis/Source/cmsis_os2.o
 .text.osThreadFlagsClear
                0x00000000       0x6c ./gecko_sdk_4.4.4/util/third_party/freertos/cmsis/Source/cmsis_os2.o
 .text.osThreadFlagsGet
                0x00000000       0x4c ./gecko_sdk_4.4.4/util/third_party/freertos/cmsis/Source/cmsis_os2.o
 .text.osThreadFlagsWait
                0x00000000       0xb8 ./gecko_sdk_4.4.4/util/third_party/freertos/cmsis/Source/cmsis_os2.o
 .text.osDelay  0x00000000       0x30 ./gecko_sdk_4.4.4/util/third_party/freertos/cmsis/Source/cmsis_os2.o
 .text.osDelayUntil
                0x00000000       0x48 ./gecko_sdk_4.4.4/util/third_party/freertos/cmsis/Source/cmsis_os2.o
 .text.osTimerNew
                0x00000000       0x8c ./gecko_sdk_4.4.4/util/third_party/freertos/cmsis/Source/cmsis_os2.o
 .text.osTimerGetName
                0x00000000       0x28 ./gecko_sdk_4.4.4/util/third_party/freertos/cmsis/Source/cmsis_os2.o
 .text.osTimerStart
                0x00000000       0x4c ./gecko_sdk_4.4.4/util/third_party/freertos/cmsis/Source/cmsis_os2.o
 .text.osTimerStop
                0x00000000       0x58 ./gecko_sdk_4.4.4/util/third_party/freertos/cmsis/Source/cmsis_os2.o
 .text.osTimerIsRunning
                0x00000000       0x28 ./gecko_sdk_4.4.4/util/third_party/freertos/cmsis/Source/cmsis_os2.o
 .text.osTimerDelete
                0x00000000       0x60 ./gecko_sdk_4.4.4/util/third_party/freertos/cmsis/Source/cmsis_os2.o
 .text.osEventFlagsNew
                0x00000000       0x3c ./gecko_sdk_4.4.4/util/third_party/freertos/cmsis/Source/cmsis_os2.o
 .text.osEventFlagsSet
                0x00000000       0x70 ./gecko_sdk_4.4.4/util/third_party/freertos/cmsis/Source/cmsis_os2.o
 .text.osEventFlagsClear
                0x00000000       0x5c ./gecko_sdk_4.4.4/util/third_party/freertos/cmsis/Source/cmsis_os2.o
 .text.osEventFlagsGet
                0x00000000       0x34 ./gecko_sdk_4.4.4/util/third_party/freertos/cmsis/Source/cmsis_os2.o
 .text.osEventFlagsWait
                0x00000000       0x70 ./gecko_sdk_4.4.4/util/third_party/freertos/cmsis/Source/cmsis_os2.o
 .text.osEventFlagsDelete
                0x00000000       0x38 ./gecko_sdk_4.4.4/util/third_party/freertos/cmsis/Source/cmsis_os2.o
 .text.osMutexGetOwner
                0x00000000       0x30 ./gecko_sdk_4.4.4/util/third_party/freertos/cmsis/Source/cmsis_os2.o
 .text.osSemaphoreGetCount
                0x00000000       0x30 ./gecko_sdk_4.4.4/util/third_party/freertos/cmsis/Source/cmsis_os2.o
 .text.osMessageQueueGetCapacity
                0x00000000        0x6 ./gecko_sdk_4.4.4/util/third_party/freertos/cmsis/Source/cmsis_os2.o
 .text.osMessageQueueGetMsgSize
                0x00000000        0x6 ./gecko_sdk_4.4.4/util/third_party/freertos/cmsis/Source/cmsis_os2.o
 .text.osMessageQueueGetCount
                0x00000000        0x4 ./gecko_sdk_4.4.4/util/third_party/freertos/cmsis/Source/cmsis_os2.o
 .text.osMessageQueueGetSpace
                0x00000000       0x48 ./gecko_sdk_4.4.4/util/third_party/freertos/cmsis/Source/cmsis_os2.o
 .text.osMessageQueueReset
                0x00000000       0x38 ./gecko_sdk_4.4.4/util/third_party/freertos/cmsis/Source/cmsis_os2.o
 .text.osMessageQueueDelete
                0x00000000        0x4 ./gecko_sdk_4.4.4/util/third_party/freertos/cmsis/Source/cmsis_os2.o
 .text.osMemoryPoolNew
                0x00000000      0x15c ./gecko_sdk_4.4.4/util/third_party/freertos/cmsis/Source/cmsis_os2.o
 .text.osMemoryPoolGetName
                0x00000000       0x28 ./gecko_sdk_4.4.4/util/third_party/freertos/cmsis/Source/cmsis_os2.o
 .text.osMemoryPoolAlloc
                0x00000000       0xc4 ./gecko_sdk_4.4.4/util/third_party/freertos/cmsis/Source/cmsis_os2.o
 .text.osMemoryPoolFree
                0x00000000       0xd0 ./gecko_sdk_4.4.4/util/third_party/freertos/cmsis/Source/cmsis_os2.o
 .text.osMemoryPoolGetCapacity
                0x00000000       0x18 ./gecko_sdk_4.4.4/util/third_party/freertos/cmsis/Source/cmsis_os2.o
 .text.osMemoryPoolGetBlockSize
                0x00000000       0x18 ./gecko_sdk_4.4.4/util/third_party/freertos/cmsis/Source/cmsis_os2.o
 .text.osMemoryPoolGetCount
                0x00000000       0x48 ./gecko_sdk_4.4.4/util/third_party/freertos/cmsis/Source/cmsis_os2.o
 .text.osMemoryPoolGetSpace
                0x00000000       0x3c ./gecko_sdk_4.4.4/util/third_party/freertos/cmsis/Source/cmsis_os2.o
 .text.osMemoryPoolDelete
                0x00000000       0x74 ./gecko_sdk_4.4.4/util/third_party/freertos/cmsis/Source/cmsis_os2.o
 .rodata.CSWTCH.118
                0x00000000        0x5 ./gecko_sdk_4.4.4/util/third_party/freertos/cmsis/Source/cmsis_os2.o
 .text          0x00000000        0x0 ./gecko_sdk_4.4.4/util/third_party/freertos/kernel/croutine.o
 .data          0x00000000        0x0 ./gecko_sdk_4.4.4/util/third_party/freertos/kernel/croutine.o
 .bss           0x00000000        0x0 ./gecko_sdk_4.4.4/util/third_party/freertos/kernel/croutine.o
 .debug_info    0x00000000       0x6b ./gecko_sdk_4.4.4/util/third_party/freertos/kernel/croutine.o
 .debug_abbrev  0x00000000       0x26 ./gecko_sdk_4.4.4/util/third_party/freertos/kernel/croutine.o
 .debug_aranges
                0x00000000       0x18 ./gecko_sdk_4.4.4/util/third_party/freertos/kernel/croutine.o
 .debug_line    0x00000000       0x5f ./gecko_sdk_4.4.4/util/third_party/freertos/kernel/croutine.o
 .debug_str     0x00000000      0x1de ./gecko_sdk_4.4.4/util/third_party/freertos/kernel/croutine.o
 .comment       0x00000000       0x46 ./gecko_sdk_4.4.4/util/third_party/freertos/kernel/croutine.o
 .ARM.attributes
                0x00000000       0x32 ./gecko_sdk_4.4.4/util/third_party/freertos/kernel/croutine.o
 .text          0x00000000        0x0 ./gecko_sdk_4.4.4/util/third_party/freertos/kernel/event_groups.o
 .data          0x00000000        0x0 ./gecko_sdk_4.4.4/util/third_party/freertos/kernel/event_groups.o
 .bss           0x00000000        0x0 ./gecko_sdk_4.4.4/util/third_party/freertos/kernel/event_groups.o
 .rodata.xEventGroupCreateStatic.str1.1
                0x00000000       0x43 ./gecko_sdk_4.4.4/util/third_party/freertos/kernel/event_groups.o
 .text.xEventGroupCreateStatic
                0x00000000       0x50 ./gecko_sdk_4.4.4/util/third_party/freertos/kernel/event_groups.o
 .text.xEventGroupCreate
                0x00000000       0x1c ./gecko_sdk_4.4.4/util/third_party/freertos/kernel/event_groups.o
 .text.xEventGroupWaitBits
                0x00000000      0x130 ./gecko_sdk_4.4.4/util/third_party/freertos/kernel/event_groups.o
 .text.xEventGroupClearBits
                0x00000000       0x3c ./gecko_sdk_4.4.4/util/third_party/freertos/kernel/event_groups.o
 .text.vEventGroupClearBitsCallback
                0x00000000        0x4 ./gecko_sdk_4.4.4/util/third_party/freertos/kernel/event_groups.o
 .text.xEventGroupClearBitsFromISR
                0x00000000       0x10 ./gecko_sdk_4.4.4/util/third_party/freertos/kernel/event_groups.o
 .text.xEventGroupGetBitsFromISR
                0x00000000       0x1c ./gecko_sdk_4.4.4/util/third_party/freertos/kernel/event_groups.o
 .text.xEventGroupSetBits
                0x00000000       0x7c ./gecko_sdk_4.4.4/util/third_party/freertos/kernel/event_groups.o
 .text.xEventGroupSync
                0x00000000       0xb4 ./gecko_sdk_4.4.4/util/third_party/freertos/kernel/event_groups.o
 .text.vEventGroupSetBitsCallback
                0x00000000        0x4 ./gecko_sdk_4.4.4/util/third_party/freertos/kernel/event_groups.o
 .text.vEventGroupDelete
                0x00000000       0x44 ./gecko_sdk_4.4.4/util/third_party/freertos/kernel/event_groups.o
 .text.xEventGroupSetBitsFromISR
                0x00000000       0x10 ./gecko_sdk_4.4.4/util/third_party/freertos/kernel/event_groups.o
 .text.uxEventGroupGetNumber
                0x00000000        0x6 ./gecko_sdk_4.4.4/util/third_party/freertos/kernel/event_groups.o
 .text.vEventGroupSetNumber
                0x00000000        0x4 ./gecko_sdk_4.4.4/util/third_party/freertos/kernel/event_groups.o
 .debug_info    0x00000000     0x1089 ./gecko_sdk_4.4.4/util/third_party/freertos/kernel/event_groups.o
 .debug_abbrev  0x00000000      0x3ab ./gecko_sdk_4.4.4/util/third_party/freertos/kernel/event_groups.o
 .debug_loc     0x00000000      0xe79 ./gecko_sdk_4.4.4/util/third_party/freertos/kernel/event_groups.o
 .debug_aranges
                0x00000000       0x88 ./gecko_sdk_4.4.4/util/third_party/freertos/kernel/event_groups.o
 .debug_ranges  0x00000000      0x108 ./gecko_sdk_4.4.4/util/third_party/freertos/kernel/event_groups.o
 .debug_line    0x00000000      0xa81 ./gecko_sdk_4.4.4/util/third_party/freertos/kernel/event_groups.o
 .debug_str     0x00000000      0x84e ./gecko_sdk_4.4.4/util/third_party/freertos/kernel/event_groups.o
 .comment       0x00000000       0x46 ./gecko_sdk_4.4.4/util/third_party/freertos/kernel/event_groups.o
 .debug_frame   0x00000000      0x160 ./gecko_sdk_4.4.4/util/third_party/freertos/kernel/event_groups.o
 .ARM.attributes
                0x00000000       0x32 ./gecko_sdk_4.4.4/util/third_party/freertos/kernel/event_groups.o
 .text          0x00000000        0x0 ./gecko_sdk_4.4.4/util/third_party/freertos/kernel/list.o
 .data          0x00000000        0x0 ./gecko_sdk_4.4.4/util/third_party/freertos/kernel/list.o
 .bss           0x00000000        0x0 ./gecko_sdk_4.4.4/util/third_party/freertos/kernel/list.o
 .text          0x00000000        0x0 ./gecko_sdk_4.4.4/util/third_party/freertos/kernel/queue.o
 .data          0x00000000        0x0 ./gecko_sdk_4.4.4/util/third_party/freertos/kernel/queue.o
 .bss           0x00000000        0x0 ./gecko_sdk_4.4.4/util/third_party/freertos/kernel/queue.o
 .text.xQueueGetMutexHolder
                0x00000000       0x1a ./gecko_sdk_4.4.4/util/third_party/freertos/kernel/queue.o
 .text.xQueueGetMutexHolderFromISR
                0x00000000       0x20 ./gecko_sdk_4.4.4/util/third_party/freertos/kernel/queue.o
 .text.xQueuePeek
                0x00000000      0x128 ./gecko_sdk_4.4.4/util/third_party/freertos/kernel/queue.o
 .text.xQueuePeekFromISR
                0x00000000       0x68 ./gecko_sdk_4.4.4/util/third_party/freertos/kernel/queue.o
 .text.uxQueueMessagesWaiting
                0x00000000       0x24 ./gecko_sdk_4.4.4/util/third_party/freertos/kernel/queue.o
 .text.uxQueueSpacesAvailable
                0x00000000       0x28 ./gecko_sdk_4.4.4/util/third_party/freertos/kernel/queue.o
 .text.uxQueueMessagesWaitingFromISR
                0x00000000       0x18 ./gecko_sdk_4.4.4/util/third_party/freertos/kernel/queue.o
 .text.uxQueueGetQueueNumber
                0x00000000        0x4 ./gecko_sdk_4.4.4/util/third_party/freertos/kernel/queue.o
 .text.vQueueSetQueueNumber
                0x00000000        0x4 ./gecko_sdk_4.4.4/util/third_party/freertos/kernel/queue.o
 .text.ucQueueGetQueueType
                0x00000000        0x6 ./gecko_sdk_4.4.4/util/third_party/freertos/kernel/queue.o
 .text.xQueueIsQueueEmptyFromISR
                0x00000000       0x20 ./gecko_sdk_4.4.4/util/third_party/freertos/kernel/queue.o
 .text.xQueueIsQueueFullFromISR
                0x00000000       0x20 ./gecko_sdk_4.4.4/util/third_party/freertos/kernel/queue.o
 .text.pcQueueGetName
                0x00000000       0x28 ./gecko_sdk_4.4.4/util/third_party/freertos/kernel/queue.o
 .text          0x00000000        0x0 ./gecko_sdk_4.4.4/util/third_party/freertos/kernel/stream_buffer.o
 .data          0x00000000        0x0 ./gecko_sdk_4.4.4/util/third_party/freertos/kernel/stream_buffer.o
 .bss           0x00000000        0x0 ./gecko_sdk_4.4.4/util/third_party/freertos/kernel/stream_buffer.o
 .text.prvBytesInBuffer
                0x00000000       0x12 ./gecko_sdk_4.4.4/util/third_party/freertos/kernel/stream_buffer.o
 .rodata.prvInitialiseNewStreamBuffer.str1.1
                0x00000000       0x44 ./gecko_sdk_4.4.4/util/third_party/freertos/kernel/stream_buffer.o
 .text.prvInitialiseNewStreamBuffer
                0x00000000       0x3c ./gecko_sdk_4.4.4/util/third_party/freertos/kernel/stream_buffer.o
 .text.prvWriteBytesToBuffer
                0x00000000       0x78 ./gecko_sdk_4.4.4/util/third_party/freertos/kernel/stream_buffer.o
 .text.prvReadBytesFromBuffer
                0x00000000       0x70 ./gecko_sdk_4.4.4/util/third_party/freertos/kernel/stream_buffer.o
 .text.xStreamBufferGenericCreate
                0x00000000       0x94 ./gecko_sdk_4.4.4/util/third_party/freertos/kernel/stream_buffer.o
 .text.xStreamBufferGenericCreateStatic
                0x00000000       0x98 ./gecko_sdk_4.4.4/util/third_party/freertos/kernel/stream_buffer.o
 .text.vStreamBufferDelete
                0x00000000       0x34 ./gecko_sdk_4.4.4/util/third_party/freertos/kernel/stream_buffer.o
 .text.xStreamBufferReset
                0x00000000       0x48 ./gecko_sdk_4.4.4/util/third_party/freertos/kernel/stream_buffer.o
 .text.xStreamBufferSetTriggerLevel
                0x00000000       0x2c ./gecko_sdk_4.4.4/util/third_party/freertos/kernel/stream_buffer.o
 .text.xStreamBufferSpacesAvailable
                0x00000000       0x28 ./gecko_sdk_4.4.4/util/third_party/freertos/kernel/stream_buffer.o
 .text.xStreamBufferBytesAvailable
                0x00000000       0x20 ./gecko_sdk_4.4.4/util/third_party/freertos/kernel/stream_buffer.o
 .text.xStreamBufferSend
                0x00000000      0x12c ./gecko_sdk_4.4.4/util/third_party/freertos/kernel/stream_buffer.o
 .text.xStreamBufferSendFromISR
                0x00000000       0xb4 ./gecko_sdk_4.4.4/util/third_party/freertos/kernel/stream_buffer.o
 .text.xStreamBufferReceive
                0x00000000       0xe8 ./gecko_sdk_4.4.4/util/third_party/freertos/kernel/stream_buffer.o
 .text.xStreamBufferNextMessageLengthBytes
                0x00000000       0x50 ./gecko_sdk_4.4.4/util/third_party/freertos/kernel/stream_buffer.o
 .text.xStreamBufferReceiveFromISR
                0x00000000       0xb8 ./gecko_sdk_4.4.4/util/third_party/freertos/kernel/stream_buffer.o
 .text.xStreamBufferIsEmpty
                0x00000000       0x20 ./gecko_sdk_4.4.4/util/third_party/freertos/kernel/stream_buffer.o
 .text.xStreamBufferIsFull
                0x00000000       0x2c ./gecko_sdk_4.4.4/util/third_party/freertos/kernel/stream_buffer.o
 .text.xStreamBufferSendCompletedFromISR
                0x00000000       0x4c ./gecko_sdk_4.4.4/util/third_party/freertos/kernel/stream_buffer.o
 .text.xStreamBufferReceiveCompletedFromISR
                0x00000000       0x4c ./gecko_sdk_4.4.4/util/third_party/freertos/kernel/stream_buffer.o
 .text.uxStreamBufferGetStreamBufferNumber
                0x00000000        0x4 ./gecko_sdk_4.4.4/util/third_party/freertos/kernel/stream_buffer.o
 .text.vStreamBufferSetStreamBufferNumber
                0x00000000        0x4 ./gecko_sdk_4.4.4/util/third_party/freertos/kernel/stream_buffer.o
 .text.ucStreamBufferGetStreamBufferType
                0x00000000        0x8 ./gecko_sdk_4.4.4/util/third_party/freertos/kernel/stream_buffer.o
 .debug_info    0x00000000     0x1efa ./gecko_sdk_4.4.4/util/third_party/freertos/kernel/stream_buffer.o
 .debug_abbrev  0x00000000      0x442 ./gecko_sdk_4.4.4/util/third_party/freertos/kernel/stream_buffer.o
 .debug_loc     0x00000000     0x1d37 ./gecko_sdk_4.4.4/util/third_party/freertos/kernel/stream_buffer.o
 .debug_aranges
                0x00000000       0xd0 ./gecko_sdk_4.4.4/util/third_party/freertos/kernel/stream_buffer.o
 .debug_ranges  0x00000000      0x130 ./gecko_sdk_4.4.4/util/third_party/freertos/kernel/stream_buffer.o
 .debug_line    0x00000000     0x1175 ./gecko_sdk_4.4.4/util/third_party/freertos/kernel/stream_buffer.o
 .debug_str     0x00000000      0xa1d ./gecko_sdk_4.4.4/util/third_party/freertos/kernel/stream_buffer.o
 .comment       0x00000000       0x46 ./gecko_sdk_4.4.4/util/third_party/freertos/kernel/stream_buffer.o
 .debug_frame   0x00000000      0x2d0 ./gecko_sdk_4.4.4/util/third_party/freertos/kernel/stream_buffer.o
 .ARM.attributes
                0x00000000       0x32 ./gecko_sdk_4.4.4/util/third_party/freertos/kernel/stream_buffer.o
 .text          0x00000000        0x0 ./gecko_sdk_4.4.4/util/third_party/freertos/kernel/tasks.o
 .data          0x00000000        0x0 ./gecko_sdk_4.4.4/util/third_party/freertos/kernel/tasks.o
 .bss           0x00000000        0x0 ./gecko_sdk_4.4.4/util/third_party/freertos/kernel/tasks.o
 .text.prvTaskIsTaskSuspended
                0x00000000       0x38 ./gecko_sdk_4.4.4/util/third_party/freertos/kernel/tasks.o
 .text.vTaskDelete
                0x00000000       0xac ./gecko_sdk_4.4.4/util/third_party/freertos/kernel/tasks.o
 .text.eTaskGetState
                0x00000000       0x80 ./gecko_sdk_4.4.4/util/third_party/freertos/kernel/tasks.o
 .text.uxTaskPriorityGet
                0x00000000       0x1c ./gecko_sdk_4.4.4/util/third_party/freertos/kernel/tasks.o
 .text.uxTaskPriorityGetFromISR
                0x00000000       0x30 ./gecko_sdk_4.4.4/util/third_party/freertos/kernel/tasks.o
 .text.vTaskPrioritySet
                0x00000000       0xbc ./gecko_sdk_4.4.4/util/third_party/freertos/kernel/tasks.o
 .text.vTaskResume
                0x00000000       0x84 ./gecko_sdk_4.4.4/util/third_party/freertos/kernel/tasks.o
 .text.xTaskResumeFromISR
                0x00000000       0xa4 ./gecko_sdk_4.4.4/util/third_party/freertos/kernel/tasks.o
 .text.vTaskEndScheduler
                0x00000000       0x20 ./gecko_sdk_4.4.4/util/third_party/freertos/kernel/tasks.o
 .text.xTaskGetTickCountFromISR
                0x00000000       0x10 ./gecko_sdk_4.4.4/util/third_party/freertos/kernel/tasks.o
 .text.uxTaskGetNumberOfTasks
                0x00000000        0xc ./gecko_sdk_4.4.4/util/third_party/freertos/kernel/tasks.o
 .text.pcTaskGetName
                0x00000000       0x24 ./gecko_sdk_4.4.4/util/third_party/freertos/kernel/tasks.o
 .text.xTaskDelayUntil
                0x00000000       0x8c ./gecko_sdk_4.4.4/util/third_party/freertos/kernel/tasks.o
 .text.vTaskDelay
                0x00000000       0x4c ./gecko_sdk_4.4.4/util/third_party/freertos/kernel/tasks.o
 .text.xTaskCatchUpTicks
                0x00000000       0x34 ./gecko_sdk_4.4.4/util/third_party/freertos/kernel/tasks.o
 .text.vTaskSuspend
                0x00000000       0xb0 ./gecko_sdk_4.4.4/util/third_party/freertos/kernel/tasks.o
 .text.vTaskPlaceOnUnorderedEventList
                0x00000000       0x50 ./gecko_sdk_4.4.4/util/third_party/freertos/kernel/tasks.o
 .text.vTaskRemoveFromUnorderedEventList
                0x00000000       0x80 ./gecko_sdk_4.4.4/util/third_party/freertos/kernel/tasks.o
 .text.vTaskSetTimeOutState
                0x00000000       0x34 ./gecko_sdk_4.4.4/util/third_party/freertos/kernel/tasks.o
 .text.uxTaskGetTaskNumber
                0x00000000        0x6 ./gecko_sdk_4.4.4/util/third_party/freertos/kernel/tasks.o
 .text.vTaskSetTaskNumber
                0x00000000        0x6 ./gecko_sdk_4.4.4/util/third_party/freertos/kernel/tasks.o
 .text.vTaskGetInfo
                0x00000000       0x78 ./gecko_sdk_4.4.4/util/third_party/freertos/kernel/tasks.o
 .text.prvListTasksWithinSingleList
                0x00000000       0x5e ./gecko_sdk_4.4.4/util/third_party/freertos/kernel/tasks.o
 .text.uxTaskGetSystemState
                0x00000000       0xa8 ./gecko_sdk_4.4.4/util/third_party/freertos/kernel/tasks.o
 .text.uxTaskGetStackHighWaterMark
                0x00000000       0x20 ./gecko_sdk_4.4.4/util/third_party/freertos/kernel/tasks.o
 .text.uxTaskResetEventItemValue
                0x00000000       0x18 ./gecko_sdk_4.4.4/util/third_party/freertos/kernel/tasks.o
 .text.ulTaskGenericNotifyTake
                0x00000000       0x8c ./gecko_sdk_4.4.4/util/third_party/freertos/kernel/tasks.o
 .text.xTaskGenericNotifyWait
                0x00000000       0xbc ./gecko_sdk_4.4.4/util/third_party/freertos/kernel/tasks.o
 .text.xTaskGenericNotify
                0x00000000      0x100 ./gecko_sdk_4.4.4/util/third_party/freertos/kernel/tasks.o
 .text.xTaskGenericNotifyFromISR
                0x00000000      0x128 ./gecko_sdk_4.4.4/util/third_party/freertos/kernel/tasks.o
 .text.vTaskGenericNotifyGiveFromISR
                0x00000000       0xcc ./gecko_sdk_4.4.4/util/third_party/freertos/kernel/tasks.o
 .text.xTaskGenericNotifyStateClear
                0x00000000       0x40 ./gecko_sdk_4.4.4/util/third_party/freertos/kernel/tasks.o
 .text.ulTaskGenericNotifyValueClear
                0x00000000       0x2c ./gecko_sdk_4.4.4/util/third_party/freertos/kernel/tasks.o
 .text          0x00000000        0x0 ./gecko_sdk_4.4.4/util/third_party/freertos/kernel/timers.o
 .data          0x00000000        0x0 ./gecko_sdk_4.4.4/util/third_party/freertos/kernel/timers.o
 .bss           0x00000000        0x0 ./gecko_sdk_4.4.4/util/third_party/freertos/kernel/timers.o
 .text.xTimerCreate
                0x00000000       0x58 ./gecko_sdk_4.4.4/util/third_party/freertos/kernel/timers.o
 .text.xTimerCreateStatic
                0x00000000       0x74 ./gecko_sdk_4.4.4/util/third_party/freertos/kernel/timers.o
 .text.xTimerGetTimerDaemonTaskHandle
                0x00000000       0x20 ./gecko_sdk_4.4.4/util/third_party/freertos/kernel/timers.o
 .text.xTimerGetPeriod
                0x00000000       0x18 ./gecko_sdk_4.4.4/util/third_party/freertos/kernel/timers.o
 .text.vTimerSetReloadMode
                0x00000000       0x38 ./gecko_sdk_4.4.4/util/third_party/freertos/kernel/timers.o
 .text.uxTimerGetReloadMode
                0x00000000       0x28 ./gecko_sdk_4.4.4/util/third_party/freertos/kernel/timers.o
 .text.xTimerGetExpiryTime
                0x00000000       0x18 ./gecko_sdk_4.4.4/util/third_party/freertos/kernel/timers.o
 .text.pcTimerGetName
                0x00000000       0x18 ./gecko_sdk_4.4.4/util/third_party/freertos/kernel/timers.o
 .text.xTimerIsTimerActive
                0x00000000       0x28 ./gecko_sdk_4.4.4/util/third_party/freertos/kernel/timers.o
 .text.pvTimerGetTimerID
                0x00000000       0x24 ./gecko_sdk_4.4.4/util/third_party/freertos/kernel/timers.o
 .text.vTimerSetTimerID
                0x00000000       0x24 ./gecko_sdk_4.4.4/util/third_party/freertos/kernel/timers.o
 .text.xTimerPendFunctionCallFromISR
                0x00000000       0x28 ./gecko_sdk_4.4.4/util/third_party/freertos/kernel/timers.o
 .text.xTimerPendFunctionCall
                0x00000000       0x48 ./gecko_sdk_4.4.4/util/third_party/freertos/kernel/timers.o
 .text.uxTimerGetTimerNumber
                0x00000000        0x4 ./gecko_sdk_4.4.4/util/third_party/freertos/kernel/timers.o
 .text.vTimerSetTimerNumber
                0x00000000        0x4 ./gecko_sdk_4.4.4/util/third_party/freertos/kernel/timers.o
 .text          0x00000000        0x0 ./gecko_sdk_4.4.4/util/third_party/freertos/kernel/portable/GCC/ARM_CM4F/port.o
 .data          0x00000000        0x0 ./gecko_sdk_4.4.4/util/third_party/freertos/kernel/portable/GCC/ARM_CM4F/port.o
 .bss           0x00000000        0x0 ./gecko_sdk_4.4.4/util/third_party/freertos/kernel/portable/GCC/ARM_CM4F/port.o
 .text.vPortEndScheduler
                0x00000000       0x20 ./gecko_sdk_4.4.4/util/third_party/freertos/kernel/portable/GCC/ARM_CM4F/port.o
 .text          0x00000000        0x0 ./gecko_sdk_4.4.4/util/third_party/freertos/kernel/portable/MemMang/heap_4.o
 .data          0x00000000        0x0 ./gecko_sdk_4.4.4/util/third_party/freertos/kernel/portable/MemMang/heap_4.o
 .bss           0x00000000        0x0 ./gecko_sdk_4.4.4/util/third_party/freertos/kernel/portable/MemMang/heap_4.o
 .text.xPortGetFreeHeapSize
                0x00000000        0xc ./gecko_sdk_4.4.4/util/third_party/freertos/kernel/portable/MemMang/heap_4.o
 .text.xPortGetMinimumEverFreeHeapSize
                0x00000000        0xc ./gecko_sdk_4.4.4/util/third_party/freertos/kernel/portable/MemMang/heap_4.o
 .text.vPortInitialiseBlocks
                0x00000000        0x2 ./gecko_sdk_4.4.4/util/third_party/freertos/kernel/portable/MemMang/heap_4.o
 .text.vPortGetHeapStats
                0x00000000       0x84 ./gecko_sdk_4.4.4/util/third_party/freertos/kernel/portable/MemMang/heap_4.o
 .text          0x00000000        0x0 e:/siliconlabs/simplicitystudio/v5/developer/toolchains/gnu_arm/12.2.rel1_2023.7/bin/../lib/gcc/arm-none-eabi/12.2.1/thumb/v7e-m+fp/softfp\libc_nano.a(libc_a-calloc.o)
 .data          0x00000000        0x0 e:/siliconlabs/simplicitystudio/v5/developer/toolchains/gnu_arm/12.2.rel1_2023.7/bin/../lib/gcc/arm-none-eabi/12.2.1/thumb/v7e-m+fp/softfp\libc_nano.a(libc_a-calloc.o)
 .bss           0x00000000        0x0 e:/siliconlabs/simplicitystudio/v5/developer/toolchains/gnu_arm/12.2.rel1_2023.7/bin/../lib/gcc/arm-none-eabi/12.2.1/thumb/v7e-m+fp/softfp\libc_nano.a(libc_a-calloc.o)
 .text.calloc   0x00000000       0x10 e:/siliconlabs/simplicitystudio/v5/developer/toolchains/gnu_arm/12.2.rel1_2023.7/bin/../lib/gcc/arm-none-eabi/12.2.1/thumb/v7e-m+fp/softfp\libc_nano.a(libc_a-calloc.o)
 .debug_frame   0x00000000       0x20 e:/siliconlabs/simplicitystudio/v5/developer/toolchains/gnu_arm/12.2.rel1_2023.7/bin/../lib/gcc/arm-none-eabi/12.2.1/thumb/v7e-m+fp/softfp\libc_nano.a(libc_a-calloc.o)
 .ARM.attributes
                0x00000000       0x32 e:/siliconlabs/simplicitystudio/v5/developer/toolchains/gnu_arm/12.2.rel1_2023.7/bin/../lib/gcc/arm-none-eabi/12.2.1/thumb/v7e-m+fp/softfp\libc_nano.a(libc_a-calloc.o)
 .text          0x00000000        0x0 e:/siliconlabs/simplicitystudio/v5/developer/toolchains/gnu_arm/12.2.rel1_2023.7/bin/../lib/gcc/arm-none-eabi/12.2.1/thumb/v7e-m+fp/softfp\libc_nano.a(libc_a-callocr.o)
 .data          0x00000000        0x0 e:/siliconlabs/simplicitystudio/v5/developer/toolchains/gnu_arm/12.2.rel1_2023.7/bin/../lib/gcc/arm-none-eabi/12.2.1/thumb/v7e-m+fp/softfp\libc_nano.a(libc_a-callocr.o)
 .bss           0x00000000        0x0 e:/siliconlabs/simplicitystudio/v5/developer/toolchains/gnu_arm/12.2.rel1_2023.7/bin/../lib/gcc/arm-none-eabi/12.2.1/thumb/v7e-m+fp/softfp\libc_nano.a(libc_a-callocr.o)
 .text._calloc_r
                0x00000000       0x28 e:/siliconlabs/simplicitystudio/v5/developer/toolchains/gnu_arm/12.2.rel1_2023.7/bin/../lib/gcc/arm-none-eabi/12.2.1/thumb/v7e-m+fp/softfp\libc_nano.a(libc_a-callocr.o)
 .debug_frame   0x00000000       0x2c e:/siliconlabs/simplicitystudio/v5/developer/toolchains/gnu_arm/12.2.rel1_2023.7/bin/../lib/gcc/arm-none-eabi/12.2.1/thumb/v7e-m+fp/softfp\libc_nano.a(libc_a-callocr.o)
 .ARM.attributes
                0x00000000       0x32 e:/siliconlabs/simplicitystudio/v5/developer/toolchains/gnu_arm/12.2.rel1_2023.7/bin/../lib/gcc/arm-none-eabi/12.2.1/thumb/v7e-m+fp/softfp\libc_nano.a(libc_a-callocr.o)
 .text          0x00000000        0x0 e:/siliconlabs/simplicitystudio/v5/developer/toolchains/gnu_arm/12.2.rel1_2023.7/bin/../lib/gcc/arm-none-eabi/12.2.1/thumb/v7e-m+fp/softfp\libc_nano.a(libc_a-exit.o)
 .data          0x00000000        0x0 e:/siliconlabs/simplicitystudio/v5/developer/toolchains/gnu_arm/12.2.rel1_2023.7/bin/../lib/gcc/arm-none-eabi/12.2.1/thumb/v7e-m+fp/softfp\libc_nano.a(libc_a-exit.o)
 .bss           0x00000000        0x0 e:/siliconlabs/simplicitystudio/v5/developer/toolchains/gnu_arm/12.2.rel1_2023.7/bin/../lib/gcc/arm-none-eabi/12.2.1/thumb/v7e-m+fp/softfp\libc_nano.a(libc_a-exit.o)
 .text          0x00000000        0x0 e:/siliconlabs/simplicitystudio/v5/developer/toolchains/gnu_arm/12.2.rel1_2023.7/bin/../lib/gcc/arm-none-eabi/12.2.1/thumb/v7e-m+fp/softfp\libc_nano.a(libc_a-malloc.o)
 .data          0x00000000        0x0 e:/siliconlabs/simplicitystudio/v5/developer/toolchains/gnu_arm/12.2.rel1_2023.7/bin/../lib/gcc/arm-none-eabi/12.2.1/thumb/v7e-m+fp/softfp\libc_nano.a(libc_a-malloc.o)
 .bss           0x00000000        0x0 e:/siliconlabs/simplicitystudio/v5/developer/toolchains/gnu_arm/12.2.rel1_2023.7/bin/../lib/gcc/arm-none-eabi/12.2.1/thumb/v7e-m+fp/softfp\libc_nano.a(libc_a-malloc.o)
 .text.free     0x00000000       0x10 e:/siliconlabs/simplicitystudio/v5/developer/toolchains/gnu_arm/12.2.rel1_2023.7/bin/../lib/gcc/arm-none-eabi/12.2.1/thumb/v7e-m+fp/softfp\libc_nano.a(libc_a-malloc.o)
 .text          0x00000000        0x0 e:/siliconlabs/simplicitystudio/v5/developer/toolchains/gnu_arm/12.2.rel1_2023.7/bin/../lib/gcc/arm-none-eabi/12.2.1/thumb/v7e-m+fp/softfp\libc_nano.a(libc_a-mallocr.o)
 .data          0x00000000        0x0 e:/siliconlabs/simplicitystudio/v5/developer/toolchains/gnu_arm/12.2.rel1_2023.7/bin/../lib/gcc/arm-none-eabi/12.2.1/thumb/v7e-m+fp/softfp\libc_nano.a(libc_a-mallocr.o)
 .bss           0x00000000        0x0 e:/siliconlabs/simplicitystudio/v5/developer/toolchains/gnu_arm/12.2.rel1_2023.7/bin/../lib/gcc/arm-none-eabi/12.2.1/thumb/v7e-m+fp/softfp\libc_nano.a(libc_a-mallocr.o)
 .text          0x00000000        0x0 e:/siliconlabs/simplicitystudio/v5/developer/toolchains/gnu_arm/12.2.rel1_2023.7/bin/../lib/gcc/arm-none-eabi/12.2.1/thumb/v7e-m+fp/softfp\libc_nano.a(libc_a-mlock.o)
 .data          0x00000000        0x0 e:/siliconlabs/simplicitystudio/v5/developer/toolchains/gnu_arm/12.2.rel1_2023.7/bin/../lib/gcc/arm-none-eabi/12.2.1/thumb/v7e-m+fp/softfp\libc_nano.a(libc_a-mlock.o)
 .bss           0x00000000        0x0 e:/siliconlabs/simplicitystudio/v5/developer/toolchains/gnu_arm/12.2.rel1_2023.7/bin/../lib/gcc/arm-none-eabi/12.2.1/thumb/v7e-m+fp/softfp\libc_nano.a(libc_a-mlock.o)
 .text          0x00000000        0x0 e:/siliconlabs/simplicitystudio/v5/developer/toolchains/gnu_arm/12.2.rel1_2023.7/bin/../lib/gcc/arm-none-eabi/12.2.1/thumb/v7e-m+fp/softfp\libc_nano.a(libc_a-realloc.o)
 .data          0x00000000        0x0 e:/siliconlabs/simplicitystudio/v5/developer/toolchains/gnu_arm/12.2.rel1_2023.7/bin/../lib/gcc/arm-none-eabi/12.2.1/thumb/v7e-m+fp/softfp\libc_nano.a(libc_a-realloc.o)
 .bss           0x00000000        0x0 e:/siliconlabs/simplicitystudio/v5/developer/toolchains/gnu_arm/12.2.rel1_2023.7/bin/../lib/gcc/arm-none-eabi/12.2.1/thumb/v7e-m+fp/softfp\libc_nano.a(libc_a-realloc.o)
 .text.realloc  0x00000000       0x10 e:/siliconlabs/simplicitystudio/v5/developer/toolchains/gnu_arm/12.2.rel1_2023.7/bin/../lib/gcc/arm-none-eabi/12.2.1/thumb/v7e-m+fp/softfp\libc_nano.a(libc_a-realloc.o)
 .debug_frame   0x00000000       0x20 e:/siliconlabs/simplicitystudio/v5/developer/toolchains/gnu_arm/12.2.rel1_2023.7/bin/../lib/gcc/arm-none-eabi/12.2.1/thumb/v7e-m+fp/softfp\libc_nano.a(libc_a-realloc.o)
 .ARM.attributes
                0x00000000       0x32 e:/siliconlabs/simplicitystudio/v5/developer/toolchains/gnu_arm/12.2.rel1_2023.7/bin/../lib/gcc/arm-none-eabi/12.2.1/thumb/v7e-m+fp/softfp\libc_nano.a(libc_a-realloc.o)
 .text          0x00000000        0x0 e:/siliconlabs/simplicitystudio/v5/developer/toolchains/gnu_arm/12.2.rel1_2023.7/bin/../lib/gcc/arm-none-eabi/12.2.1/thumb/v7e-m+fp/softfp\libc_nano.a(libc_a-reallocr.o)
 .data          0x00000000        0x0 e:/siliconlabs/simplicitystudio/v5/developer/toolchains/gnu_arm/12.2.rel1_2023.7/bin/../lib/gcc/arm-none-eabi/12.2.1/thumb/v7e-m+fp/softfp\libc_nano.a(libc_a-reallocr.o)
 .bss           0x00000000        0x0 e:/siliconlabs/simplicitystudio/v5/developer/toolchains/gnu_arm/12.2.rel1_2023.7/bin/../lib/gcc/arm-none-eabi/12.2.1/thumb/v7e-m+fp/softfp\libc_nano.a(libc_a-reallocr.o)
 .text._realloc_r
                0x00000000       0x5c e:/siliconlabs/simplicitystudio/v5/developer/toolchains/gnu_arm/12.2.rel1_2023.7/bin/../lib/gcc/arm-none-eabi/12.2.1/thumb/v7e-m+fp/softfp\libc_nano.a(libc_a-reallocr.o)
 .debug_frame   0x00000000       0x3c e:/siliconlabs/simplicitystudio/v5/developer/toolchains/gnu_arm/12.2.rel1_2023.7/bin/../lib/gcc/arm-none-eabi/12.2.1/thumb/v7e-m+fp/softfp\libc_nano.a(libc_a-reallocr.o)
 .ARM.attributes
                0x00000000       0x32 e:/siliconlabs/simplicitystudio/v5/developer/toolchains/gnu_arm/12.2.rel1_2023.7/bin/../lib/gcc/arm-none-eabi/12.2.1/thumb/v7e-m+fp/softfp\libc_nano.a(libc_a-reallocr.o)
 .text          0x00000000        0x0 e:/siliconlabs/simplicitystudio/v5/developer/toolchains/gnu_arm/12.2.rel1_2023.7/bin/../lib/gcc/arm-none-eabi/12.2.1/thumb/v7e-m+fp/softfp\libc_nano.a(libc_a-ctype_.o)
 .data          0x00000000        0x0 e:/siliconlabs/simplicitystudio/v5/developer/toolchains/gnu_arm/12.2.rel1_2023.7/bin/../lib/gcc/arm-none-eabi/12.2.1/thumb/v7e-m+fp/softfp\libc_nano.a(libc_a-ctype_.o)
 .bss           0x00000000        0x0 e:/siliconlabs/simplicitystudio/v5/developer/toolchains/gnu_arm/12.2.rel1_2023.7/bin/../lib/gcc/arm-none-eabi/12.2.1/thumb/v7e-m+fp/softfp\libc_nano.a(libc_a-ctype_.o)
 .rodata._ctype_
                0x00000000      0x101 e:/siliconlabs/simplicitystudio/v5/developer/toolchains/gnu_arm/12.2.rel1_2023.7/bin/../lib/gcc/arm-none-eabi/12.2.1/thumb/v7e-m+fp/softfp\libc_nano.a(libc_a-ctype_.o)
 .ARM.attributes
                0x00000000       0x32 e:/siliconlabs/simplicitystudio/v5/developer/toolchains/gnu_arm/12.2.rel1_2023.7/bin/../lib/gcc/arm-none-eabi/12.2.1/thumb/v7e-m+fp/softfp\libc_nano.a(libc_a-ctype_.o)
 .text          0x00000000        0x0 e:/siliconlabs/simplicitystudio/v5/developer/toolchains/gnu_arm/12.2.rel1_2023.7/bin/../lib/gcc/arm-none-eabi/12.2.1/thumb/v7e-m+fp/softfp\libc_nano.a(libc_a-findfp.o)
 .data          0x00000000        0x0 e:/siliconlabs/simplicitystudio/v5/developer/toolchains/gnu_arm/12.2.rel1_2023.7/bin/../lib/gcc/arm-none-eabi/12.2.1/thumb/v7e-m+fp/softfp\libc_nano.a(libc_a-findfp.o)
 .bss           0x00000000        0x0 e:/siliconlabs/simplicitystudio/v5/developer/toolchains/gnu_arm/12.2.rel1_2023.7/bin/../lib/gcc/arm-none-eabi/12.2.1/thumb/v7e-m+fp/softfp\libc_nano.a(libc_a-findfp.o)
 .text.__fp_lock
                0x00000000       0x18 e:/siliconlabs/simplicitystudio/v5/developer/toolchains/gnu_arm/12.2.rel1_2023.7/bin/../lib/gcc/arm-none-eabi/12.2.1/thumb/v7e-m+fp/softfp\libc_nano.a(libc_a-findfp.o)
 .text.__fp_unlock
                0x00000000       0x18 e:/siliconlabs/simplicitystudio/v5/developer/toolchains/gnu_arm/12.2.rel1_2023.7/bin/../lib/gcc/arm-none-eabi/12.2.1/thumb/v7e-m+fp/softfp\libc_nano.a(libc_a-findfp.o)
 .text.__sfp    0x00000000       0xa4 e:/siliconlabs/simplicitystudio/v5/developer/toolchains/gnu_arm/12.2.rel1_2023.7/bin/../lib/gcc/arm-none-eabi/12.2.1/thumb/v7e-m+fp/softfp\libc_nano.a(libc_a-findfp.o)
 .text.__fp_lock_all
                0x00000000       0x1c e:/siliconlabs/simplicitystudio/v5/developer/toolchains/gnu_arm/12.2.rel1_2023.7/bin/../lib/gcc/arm-none-eabi/12.2.1/thumb/v7e-m+fp/softfp\libc_nano.a(libc_a-findfp.o)
 .text.__fp_unlock_all
                0x00000000       0x1c e:/siliconlabs/simplicitystudio/v5/developer/toolchains/gnu_arm/12.2.rel1_2023.7/bin/../lib/gcc/arm-none-eabi/12.2.1/thumb/v7e-m+fp/softfp\libc_nano.a(libc_a-findfp.o)
 .text          0x00000000        0x0 e:/siliconlabs/simplicitystudio/v5/developer/toolchains/gnu_arm/12.2.rel1_2023.7/bin/../lib/gcc/arm-none-eabi/12.2.1/thumb/v7e-m+fp/softfp\libc_nano.a(libc_a-fwalk.o)
 .data          0x00000000        0x0 e:/siliconlabs/simplicitystudio/v5/developer/toolchains/gnu_arm/12.2.rel1_2023.7/bin/../lib/gcc/arm-none-eabi/12.2.1/thumb/v7e-m+fp/softfp\libc_nano.a(libc_a-fwalk.o)
 .bss           0x00000000        0x0 e:/siliconlabs/simplicitystudio/v5/developer/toolchains/gnu_arm/12.2.rel1_2023.7/bin/../lib/gcc/arm-none-eabi/12.2.1/thumb/v7e-m+fp/softfp\libc_nano.a(libc_a-fwalk.o)
 .text          0x00000000        0x0 e:/siliconlabs/simplicitystudio/v5/developer/toolchains/gnu_arm/12.2.rel1_2023.7/bin/../lib/gcc/arm-none-eabi/12.2.1/thumb/v7e-m+fp/softfp\libc_nano.a(libc_a-stdio.o)
 .data          0x00000000        0x0 e:/siliconlabs/simplicitystudio/v5/developer/toolchains/gnu_arm/12.2.rel1_2023.7/bin/../lib/gcc/arm-none-eabi/12.2.1/thumb/v7e-m+fp/softfp\libc_nano.a(libc_a-stdio.o)
 .bss           0x00000000        0x0 e:/siliconlabs/simplicitystudio/v5/developer/toolchains/gnu_arm/12.2.rel1_2023.7/bin/../lib/gcc/arm-none-eabi/12.2.1/thumb/v7e-m+fp/softfp\libc_nano.a(libc_a-stdio.o)
 .text.__seofread
                0x00000000        0x4 e:/siliconlabs/simplicitystudio/v5/developer/toolchains/gnu_arm/12.2.rel1_2023.7/bin/../lib/gcc/arm-none-eabi/12.2.1/thumb/v7e-m+fp/softfp\libc_nano.a(libc_a-stdio.o)
 .text          0x00000000        0x0 e:/siliconlabs/simplicitystudio/v5/developer/toolchains/gnu_arm/12.2.rel1_2023.7/bin/../lib/gcc/arm-none-eabi/12.2.1/thumb/v7e-m+fp/softfp\libc_nano.a(libc_a-memset.o)
 .data          0x00000000        0x0 e:/siliconlabs/simplicitystudio/v5/developer/toolchains/gnu_arm/12.2.rel1_2023.7/bin/../lib/gcc/arm-none-eabi/12.2.1/thumb/v7e-m+fp/softfp\libc_nano.a(libc_a-memset.o)
 .bss           0x00000000        0x0 e:/siliconlabs/simplicitystudio/v5/developer/toolchains/gnu_arm/12.2.rel1_2023.7/bin/../lib/gcc/arm-none-eabi/12.2.1/thumb/v7e-m+fp/softfp\libc_nano.a(libc_a-memset.o)
 .text          0x00000000        0x0 e:/siliconlabs/simplicitystudio/v5/developer/toolchains/gnu_arm/12.2.rel1_2023.7/bin/../lib/gcc/arm-none-eabi/12.2.1/thumb/v7e-m+fp/softfp\libc_nano.a(libc_a-strtok.o)
 .data          0x00000000        0x0 e:/siliconlabs/simplicitystudio/v5/developer/toolchains/gnu_arm/12.2.rel1_2023.7/bin/../lib/gcc/arm-none-eabi/12.2.1/thumb/v7e-m+fp/softfp\libc_nano.a(libc_a-strtok.o)
 .bss           0x00000000        0x0 e:/siliconlabs/simplicitystudio/v5/developer/toolchains/gnu_arm/12.2.rel1_2023.7/bin/../lib/gcc/arm-none-eabi/12.2.1/thumb/v7e-m+fp/softfp\libc_nano.a(libc_a-strtok.o)
 .text          0x00000000        0x0 e:/siliconlabs/simplicitystudio/v5/developer/toolchains/gnu_arm/12.2.rel1_2023.7/bin/../lib/gcc/arm-none-eabi/12.2.1/thumb/v7e-m+fp/softfp\libc_nano.a(libc_a-strtok_r.o)
 .data          0x00000000        0x0 e:/siliconlabs/simplicitystudio/v5/developer/toolchains/gnu_arm/12.2.rel1_2023.7/bin/../lib/gcc/arm-none-eabi/12.2.1/thumb/v7e-m+fp/softfp\libc_nano.a(libc_a-strtok_r.o)
 .bss           0x00000000        0x0 e:/siliconlabs/simplicitystudio/v5/developer/toolchains/gnu_arm/12.2.rel1_2023.7/bin/../lib/gcc/arm-none-eabi/12.2.1/thumb/v7e-m+fp/softfp\libc_nano.a(libc_a-strtok_r.o)
 .text.strtok_r
                0x00000000        0x6 e:/siliconlabs/simplicitystudio/v5/developer/toolchains/gnu_arm/12.2.rel1_2023.7/bin/../lib/gcc/arm-none-eabi/12.2.1/thumb/v7e-m+fp/softfp\libc_nano.a(libc_a-strtok_r.o)
 .text          0x00000000        0x0 e:/siliconlabs/simplicitystudio/v5/developer/toolchains/gnu_arm/12.2.rel1_2023.7/bin/../lib/gcc/arm-none-eabi/12.2.1/thumb/v7e-m+fp/softfp\libc_nano.a(libc_a-closer.o)
 .data          0x00000000        0x0 e:/siliconlabs/simplicitystudio/v5/developer/toolchains/gnu_arm/12.2.rel1_2023.7/bin/../lib/gcc/arm-none-eabi/12.2.1/thumb/v7e-m+fp/softfp\libc_nano.a(libc_a-closer.o)
 .bss           0x00000000        0x0 e:/siliconlabs/simplicitystudio/v5/developer/toolchains/gnu_arm/12.2.rel1_2023.7/bin/../lib/gcc/arm-none-eabi/12.2.1/thumb/v7e-m+fp/softfp\libc_nano.a(libc_a-closer.o)
 .text          0x00000000        0x0 e:/siliconlabs/simplicitystudio/v5/developer/toolchains/gnu_arm/12.2.rel1_2023.7/bin/../lib/gcc/arm-none-eabi/12.2.1/thumb/v7e-m+fp/softfp\libc_nano.a(libc_a-reent.o)
 .data          0x00000000        0x0 e:/siliconlabs/simplicitystudio/v5/developer/toolchains/gnu_arm/12.2.rel1_2023.7/bin/../lib/gcc/arm-none-eabi/12.2.1/thumb/v7e-m+fp/softfp\libc_nano.a(libc_a-reent.o)
 .bss           0x00000000        0x0 e:/siliconlabs/simplicitystudio/v5/developer/toolchains/gnu_arm/12.2.rel1_2023.7/bin/../lib/gcc/arm-none-eabi/12.2.1/thumb/v7e-m+fp/softfp\libc_nano.a(libc_a-reent.o)
 .text._reclaim_reent
                0x00000000       0xac e:/siliconlabs/simplicitystudio/v5/developer/toolchains/gnu_arm/12.2.rel1_2023.7/bin/../lib/gcc/arm-none-eabi/12.2.1/thumb/v7e-m+fp/softfp\libc_nano.a(libc_a-reent.o)
 .text          0x00000000        0x0 e:/siliconlabs/simplicitystudio/v5/developer/toolchains/gnu_arm/12.2.rel1_2023.7/bin/../lib/gcc/arm-none-eabi/12.2.1/thumb/v7e-m+fp/softfp\libc_nano.a(libc_a-impure.o)
 .data          0x00000000        0x0 e:/siliconlabs/simplicitystudio/v5/developer/toolchains/gnu_arm/12.2.rel1_2023.7/bin/../lib/gcc/arm-none-eabi/12.2.1/thumb/v7e-m+fp/softfp\libc_nano.a(libc_a-impure.o)
 .bss           0x00000000        0x0 e:/siliconlabs/simplicitystudio/v5/developer/toolchains/gnu_arm/12.2.rel1_2023.7/bin/../lib/gcc/arm-none-eabi/12.2.1/thumb/v7e-m+fp/softfp\libc_nano.a(libc_a-impure.o)
 .text          0x00000000        0x0 e:/siliconlabs/simplicitystudio/v5/developer/toolchains/gnu_arm/12.2.rel1_2023.7/bin/../lib/gcc/arm-none-eabi/12.2.1/thumb/v7e-m+fp/softfp\libc_nano.a(libc_a-lseekr.o)
 .data          0x00000000        0x0 e:/siliconlabs/simplicitystudio/v5/developer/toolchains/gnu_arm/12.2.rel1_2023.7/bin/../lib/gcc/arm-none-eabi/12.2.1/thumb/v7e-m+fp/softfp\libc_nano.a(libc_a-lseekr.o)
 .bss           0x00000000        0x0 e:/siliconlabs/simplicitystudio/v5/developer/toolchains/gnu_arm/12.2.rel1_2023.7/bin/../lib/gcc/arm-none-eabi/12.2.1/thumb/v7e-m+fp/softfp\libc_nano.a(libc_a-lseekr.o)
 .text          0x00000000        0x0 e:/siliconlabs/simplicitystudio/v5/developer/toolchains/gnu_arm/12.2.rel1_2023.7/bin/../lib/gcc/arm-none-eabi/12.2.1/thumb/v7e-m+fp/softfp\libc_nano.a(libc_a-readr.o)
 .data          0x00000000        0x0 e:/siliconlabs/simplicitystudio/v5/developer/toolchains/gnu_arm/12.2.rel1_2023.7/bin/../lib/gcc/arm-none-eabi/12.2.1/thumb/v7e-m+fp/softfp\libc_nano.a(libc_a-readr.o)
 .bss           0x00000000        0x0 e:/siliconlabs/simplicitystudio/v5/developer/toolchains/gnu_arm/12.2.rel1_2023.7/bin/../lib/gcc/arm-none-eabi/12.2.1/thumb/v7e-m+fp/softfp\libc_nano.a(libc_a-readr.o)
 .text          0x00000000        0x0 e:/siliconlabs/simplicitystudio/v5/developer/toolchains/gnu_arm/12.2.rel1_2023.7/bin/../lib/gcc/arm-none-eabi/12.2.1/thumb/v7e-m+fp/softfp\libc_nano.a(libc_a-sbrkr.o)
 .data          0x00000000        0x0 e:/siliconlabs/simplicitystudio/v5/developer/toolchains/gnu_arm/12.2.rel1_2023.7/bin/../lib/gcc/arm-none-eabi/12.2.1/thumb/v7e-m+fp/softfp\libc_nano.a(libc_a-sbrkr.o)
 .bss           0x00000000        0x0 e:/siliconlabs/simplicitystudio/v5/developer/toolchains/gnu_arm/12.2.rel1_2023.7/bin/../lib/gcc/arm-none-eabi/12.2.1/thumb/v7e-m+fp/softfp\libc_nano.a(libc_a-sbrkr.o)
 .text          0x00000000        0x0 e:/siliconlabs/simplicitystudio/v5/developer/toolchains/gnu_arm/12.2.rel1_2023.7/bin/../lib/gcc/arm-none-eabi/12.2.1/thumb/v7e-m+fp/softfp\libc_nano.a(libc_a-writer.o)
 .data          0x00000000        0x0 e:/siliconlabs/simplicitystudio/v5/developer/toolchains/gnu_arm/12.2.rel1_2023.7/bin/../lib/gcc/arm-none-eabi/12.2.1/thumb/v7e-m+fp/softfp\libc_nano.a(libc_a-writer.o)
 .bss           0x00000000        0x0 e:/siliconlabs/simplicitystudio/v5/developer/toolchains/gnu_arm/12.2.rel1_2023.7/bin/../lib/gcc/arm-none-eabi/12.2.1/thumb/v7e-m+fp/softfp\libc_nano.a(libc_a-writer.o)
 .text          0x00000000        0x0 e:/siliconlabs/simplicitystudio/v5/developer/toolchains/gnu_arm/12.2.rel1_2023.7/bin/../lib/gcc/arm-none-eabi/12.2.1/thumb/v7e-m+fp/softfp\libc_nano.a(libc_a-init.o)
 .data          0x00000000        0x0 e:/siliconlabs/simplicitystudio/v5/developer/toolchains/gnu_arm/12.2.rel1_2023.7/bin/../lib/gcc/arm-none-eabi/12.2.1/thumb/v7e-m+fp/softfp\libc_nano.a(libc_a-init.o)
 .bss           0x00000000        0x0 e:/siliconlabs/simplicitystudio/v5/developer/toolchains/gnu_arm/12.2.rel1_2023.7/bin/../lib/gcc/arm-none-eabi/12.2.1/thumb/v7e-m+fp/softfp\libc_nano.a(libc_a-init.o)
 .text          0x00000000        0x0 e:/siliconlabs/simplicitystudio/v5/developer/toolchains/gnu_arm/12.2.rel1_2023.7/bin/../lib/gcc/arm-none-eabi/12.2.1/thumb/v7e-m+fp/softfp\libc_nano.a(libc_a-lock.o)
 .data          0x00000000        0x0 e:/siliconlabs/simplicitystudio/v5/developer/toolchains/gnu_arm/12.2.rel1_2023.7/bin/../lib/gcc/arm-none-eabi/12.2.1/thumb/v7e-m+fp/softfp\libc_nano.a(libc_a-lock.o)
 .bss           0x00000000        0x0 e:/siliconlabs/simplicitystudio/v5/developer/toolchains/gnu_arm/12.2.rel1_2023.7/bin/../lib/gcc/arm-none-eabi/12.2.1/thumb/v7e-m+fp/softfp\libc_nano.a(libc_a-lock.o)
 .text.__retarget_lock_init
                0x00000000        0x2 e:/siliconlabs/simplicitystudio/v5/developer/toolchains/gnu_arm/12.2.rel1_2023.7/bin/../lib/gcc/arm-none-eabi/12.2.1/thumb/v7e-m+fp/softfp\libc_nano.a(libc_a-lock.o)
 .text.__retarget_lock_close
                0x00000000        0x2 e:/siliconlabs/simplicitystudio/v5/developer/toolchains/gnu_arm/12.2.rel1_2023.7/bin/../lib/gcc/arm-none-eabi/12.2.1/thumb/v7e-m+fp/softfp\libc_nano.a(libc_a-lock.o)
 .text.__retarget_lock_close_recursive
                0x00000000        0x2 e:/siliconlabs/simplicitystudio/v5/developer/toolchains/gnu_arm/12.2.rel1_2023.7/bin/../lib/gcc/arm-none-eabi/12.2.1/thumb/v7e-m+fp/softfp\libc_nano.a(libc_a-lock.o)
 .text.__retarget_lock_acquire
                0x00000000        0x2 e:/siliconlabs/simplicitystudio/v5/developer/toolchains/gnu_arm/12.2.rel1_2023.7/bin/../lib/gcc/arm-none-eabi/12.2.1/thumb/v7e-m+fp/softfp\libc_nano.a(libc_a-lock.o)
 .text.__retarget_lock_try_acquire
                0x00000000        0x4 e:/siliconlabs/simplicitystudio/v5/developer/toolchains/gnu_arm/12.2.rel1_2023.7/bin/../lib/gcc/arm-none-eabi/12.2.1/thumb/v7e-m+fp/softfp\libc_nano.a(libc_a-lock.o)
 .text.__retarget_lock_try_acquire_recursive
                0x00000000        0x4 e:/siliconlabs/simplicitystudio/v5/developer/toolchains/gnu_arm/12.2.rel1_2023.7/bin/../lib/gcc/arm-none-eabi/12.2.1/thumb/v7e-m+fp/softfp\libc_nano.a(libc_a-lock.o)
 .text.__retarget_lock_release
                0x00000000        0x2 e:/siliconlabs/simplicitystudio/v5/developer/toolchains/gnu_arm/12.2.rel1_2023.7/bin/../lib/gcc/arm-none-eabi/12.2.1/thumb/v7e-m+fp/softfp\libc_nano.a(libc_a-lock.o)
 .bss.__lock___arc4random_mutex
                0x00000000        0x1 e:/siliconlabs/simplicitystudio/v5/developer/toolchains/gnu_arm/12.2.rel1_2023.7/bin/../lib/gcc/arm-none-eabi/12.2.1/thumb/v7e-m+fp/softfp\libc_nano.a(libc_a-lock.o)
 .bss.__lock___dd_hash_mutex
                0x00000000        0x1 e:/siliconlabs/simplicitystudio/v5/developer/toolchains/gnu_arm/12.2.rel1_2023.7/bin/../lib/gcc/arm-none-eabi/12.2.1/thumb/v7e-m+fp/softfp\libc_nano.a(libc_a-lock.o)
 .bss.__lock___tz_mutex
                0x00000000        0x1 e:/siliconlabs/simplicitystudio/v5/developer/toolchains/gnu_arm/12.2.rel1_2023.7/bin/../lib/gcc/arm-none-eabi/12.2.1/thumb/v7e-m+fp/softfp\libc_nano.a(libc_a-lock.o)
 .bss.__lock___env_recursive_mutex
                0x00000000        0x1 e:/siliconlabs/simplicitystudio/v5/developer/toolchains/gnu_arm/12.2.rel1_2023.7/bin/../lib/gcc/arm-none-eabi/12.2.1/thumb/v7e-m+fp/softfp\libc_nano.a(libc_a-lock.o)
 .bss.__lock___at_quick_exit_mutex
                0x00000000        0x1 e:/siliconlabs/simplicitystudio/v5/developer/toolchains/gnu_arm/12.2.rel1_2023.7/bin/../lib/gcc/arm-none-eabi/12.2.1/thumb/v7e-m+fp/softfp\libc_nano.a(libc_a-lock.o)
 .bss.__lock___atexit_recursive_mutex
                0x00000000        0x1 e:/siliconlabs/simplicitystudio/v5/developer/toolchains/gnu_arm/12.2.rel1_2023.7/bin/../lib/gcc/arm-none-eabi/12.2.1/thumb/v7e-m+fp/softfp\libc_nano.a(libc_a-lock.o)
 .data          0x00000000        0x0 e:/siliconlabs/simplicitystudio/v5/developer/toolchains/gnu_arm/12.2.rel1_2023.7/bin/../lib/gcc/arm-none-eabi/12.2.1/thumb/v7e-m+fp/softfp\libc_nano.a(libc_a-strcmp.o)
 .bss           0x00000000        0x0 e:/siliconlabs/simplicitystudio/v5/developer/toolchains/gnu_arm/12.2.rel1_2023.7/bin/../lib/gcc/arm-none-eabi/12.2.1/thumb/v7e-m+fp/softfp\libc_nano.a(libc_a-strcmp.o)
 .text          0x00000000        0x0 e:/siliconlabs/simplicitystudio/v5/developer/toolchains/gnu_arm/12.2.rel1_2023.7/bin/../lib/gcc/arm-none-eabi/12.2.1/thumb/v7e-m+fp/softfp\libc_nano.a(libc_a-memcpy-stub.o)
 .data          0x00000000        0x0 e:/siliconlabs/simplicitystudio/v5/developer/toolchains/gnu_arm/12.2.rel1_2023.7/bin/../lib/gcc/arm-none-eabi/12.2.1/thumb/v7e-m+fp/softfp\libc_nano.a(libc_a-memcpy-stub.o)
 .bss           0x00000000        0x0 e:/siliconlabs/simplicitystudio/v5/developer/toolchains/gnu_arm/12.2.rel1_2023.7/bin/../lib/gcc/arm-none-eabi/12.2.1/thumb/v7e-m+fp/softfp\libc_nano.a(libc_a-memcpy-stub.o)
 .text          0x00000000        0x0 e:/siliconlabs/simplicitystudio/v5/developer/toolchains/gnu_arm/12.2.rel1_2023.7/bin/../lib/gcc/arm-none-eabi/12.2.1/thumb/v7e-m+fp/softfp\libc_nano.a(libc_a-assert.o)
 .data          0x00000000        0x0 e:/siliconlabs/simplicitystudio/v5/developer/toolchains/gnu_arm/12.2.rel1_2023.7/bin/../lib/gcc/arm-none-eabi/12.2.1/thumb/v7e-m+fp/softfp\libc_nano.a(libc_a-assert.o)
 .bss           0x00000000        0x0 e:/siliconlabs/simplicitystudio/v5/developer/toolchains/gnu_arm/12.2.rel1_2023.7/bin/../lib/gcc/arm-none-eabi/12.2.1/thumb/v7e-m+fp/softfp\libc_nano.a(libc_a-assert.o)
 .text.__assert
                0x00000000        0xa e:/siliconlabs/simplicitystudio/v5/developer/toolchains/gnu_arm/12.2.rel1_2023.7/bin/../lib/gcc/arm-none-eabi/12.2.1/thumb/v7e-m+fp/softfp\libc_nano.a(libc_a-assert.o)
 .text          0x00000000        0x0 e:/siliconlabs/simplicitystudio/v5/developer/toolchains/gnu_arm/12.2.rel1_2023.7/bin/../lib/gcc/arm-none-eabi/12.2.1/thumb/v7e-m+fp/softfp\libc_nano.a(libc_a-freer.o)
 .data          0x00000000        0x0 e:/siliconlabs/simplicitystudio/v5/developer/toolchains/gnu_arm/12.2.rel1_2023.7/bin/../lib/gcc/arm-none-eabi/12.2.1/thumb/v7e-m+fp/softfp\libc_nano.a(libc_a-freer.o)
 .bss           0x00000000        0x0 e:/siliconlabs/simplicitystudio/v5/developer/toolchains/gnu_arm/12.2.rel1_2023.7/bin/../lib/gcc/arm-none-eabi/12.2.1/thumb/v7e-m+fp/softfp\libc_nano.a(libc_a-freer.o)
 .text          0x00000000        0x0 e:/siliconlabs/simplicitystudio/v5/developer/toolchains/gnu_arm/12.2.rel1_2023.7/bin/../lib/gcc/arm-none-eabi/12.2.1/thumb/v7e-m+fp/softfp\libc_nano.a(libc_a-msizer.o)
 .data          0x00000000        0x0 e:/siliconlabs/simplicitystudio/v5/developer/toolchains/gnu_arm/12.2.rel1_2023.7/bin/../lib/gcc/arm-none-eabi/12.2.1/thumb/v7e-m+fp/softfp\libc_nano.a(libc_a-msizer.o)
 .bss           0x00000000        0x0 e:/siliconlabs/simplicitystudio/v5/developer/toolchains/gnu_arm/12.2.rel1_2023.7/bin/../lib/gcc/arm-none-eabi/12.2.1/thumb/v7e-m+fp/softfp\libc_nano.a(libc_a-msizer.o)
 .text._malloc_usable_size_r
                0x00000000       0x10 e:/siliconlabs/simplicitystudio/v5/developer/toolchains/gnu_arm/12.2.rel1_2023.7/bin/../lib/gcc/arm-none-eabi/12.2.1/thumb/v7e-m+fp/softfp\libc_nano.a(libc_a-msizer.o)
 .debug_frame   0x00000000       0x20 e:/siliconlabs/simplicitystudio/v5/developer/toolchains/gnu_arm/12.2.rel1_2023.7/bin/../lib/gcc/arm-none-eabi/12.2.1/thumb/v7e-m+fp/softfp\libc_nano.a(libc_a-msizer.o)
 .ARM.attributes
                0x00000000       0x32 e:/siliconlabs/simplicitystudio/v5/developer/toolchains/gnu_arm/12.2.rel1_2023.7/bin/../lib/gcc/arm-none-eabi/12.2.1/thumb/v7e-m+fp/softfp\libc_nano.a(libc_a-msizer.o)
 .text          0x00000000        0x0 e:/siliconlabs/simplicitystudio/v5/developer/toolchains/gnu_arm/12.2.rel1_2023.7/bin/../lib/gcc/arm-none-eabi/12.2.1/thumb/v7e-m+fp/softfp\libc_nano.a(libc_a-fflush.o)
 .data          0x00000000        0x0 e:/siliconlabs/simplicitystudio/v5/developer/toolchains/gnu_arm/12.2.rel1_2023.7/bin/../lib/gcc/arm-none-eabi/12.2.1/thumb/v7e-m+fp/softfp\libc_nano.a(libc_a-fflush.o)
 .bss           0x00000000        0x0 e:/siliconlabs/simplicitystudio/v5/developer/toolchains/gnu_arm/12.2.rel1_2023.7/bin/../lib/gcc/arm-none-eabi/12.2.1/thumb/v7e-m+fp/softfp\libc_nano.a(libc_a-fflush.o)
 .text.fflush   0x00000000       0x28 e:/siliconlabs/simplicitystudio/v5/developer/toolchains/gnu_arm/12.2.rel1_2023.7/bin/../lib/gcc/arm-none-eabi/12.2.1/thumb/v7e-m+fp/softfp\libc_nano.a(libc_a-fflush.o)
 .text          0x00000000        0x0 e:/siliconlabs/simplicitystudio/v5/developer/toolchains/gnu_arm/12.2.rel1_2023.7/bin/../lib/gcc/arm-none-eabi/12.2.1/thumb/v7e-m+fp/softfp\libc_nano.a(libc_a-fprintf.o)
 .data          0x00000000        0x0 e:/siliconlabs/simplicitystudio/v5/developer/toolchains/gnu_arm/12.2.rel1_2023.7/bin/../lib/gcc/arm-none-eabi/12.2.1/thumb/v7e-m+fp/softfp\libc_nano.a(libc_a-fprintf.o)
 .bss           0x00000000        0x0 e:/siliconlabs/simplicitystudio/v5/developer/toolchains/gnu_arm/12.2.rel1_2023.7/bin/../lib/gcc/arm-none-eabi/12.2.1/thumb/v7e-m+fp/softfp\libc_nano.a(libc_a-fprintf.o)
 .text._fprintf_r
                0x00000000       0x1a e:/siliconlabs/simplicitystudio/v5/developer/toolchains/gnu_arm/12.2.rel1_2023.7/bin/../lib/gcc/arm-none-eabi/12.2.1/thumb/v7e-m+fp/softfp\libc_nano.a(libc_a-fprintf.o)
 .text          0x00000000        0x0 e:/siliconlabs/simplicitystudio/v5/developer/toolchains/gnu_arm/12.2.rel1_2023.7/bin/../lib/gcc/arm-none-eabi/12.2.1/thumb/v7e-m+fp/softfp\libc_nano.a(libc_a-abort.o)
 .data          0x00000000        0x0 e:/siliconlabs/simplicitystudio/v5/developer/toolchains/gnu_arm/12.2.rel1_2023.7/bin/../lib/gcc/arm-none-eabi/12.2.1/thumb/v7e-m+fp/softfp\libc_nano.a(libc_a-abort.o)
 .bss           0x00000000        0x0 e:/siliconlabs/simplicitystudio/v5/developer/toolchains/gnu_arm/12.2.rel1_2023.7/bin/../lib/gcc/arm-none-eabi/12.2.1/thumb/v7e-m+fp/softfp\libc_nano.a(libc_a-abort.o)
 .text          0x00000000        0x0 e:/siliconlabs/simplicitystudio/v5/developer/toolchains/gnu_arm/12.2.rel1_2023.7/bin/../lib/gcc/arm-none-eabi/12.2.1/thumb/v7e-m+fp/softfp\libc_nano.a(libc_a-nano-vfprintf.o)
 .data          0x00000000        0x0 e:/siliconlabs/simplicitystudio/v5/developer/toolchains/gnu_arm/12.2.rel1_2023.7/bin/../lib/gcc/arm-none-eabi/12.2.1/thumb/v7e-m+fp/softfp\libc_nano.a(libc_a-nano-vfprintf.o)
 .bss           0x00000000        0x0 e:/siliconlabs/simplicitystudio/v5/developer/toolchains/gnu_arm/12.2.rel1_2023.7/bin/../lib/gcc/arm-none-eabi/12.2.1/thumb/v7e-m+fp/softfp\libc_nano.a(libc_a-nano-vfprintf.o)
 .text.__sprint_r
                0x00000000       0x1a e:/siliconlabs/simplicitystudio/v5/developer/toolchains/gnu_arm/12.2.rel1_2023.7/bin/../lib/gcc/arm-none-eabi/12.2.1/thumb/v7e-m+fp/softfp\libc_nano.a(libc_a-nano-vfprintf.o)
 .text.vfprintf
                0x00000000       0x14 e:/siliconlabs/simplicitystudio/v5/developer/toolchains/gnu_arm/12.2.rel1_2023.7/bin/../lib/gcc/arm-none-eabi/12.2.1/thumb/v7e-m+fp/softfp\libc_nano.a(libc_a-nano-vfprintf.o)
 .text          0x00000000        0x0 e:/siliconlabs/simplicitystudio/v5/developer/toolchains/gnu_arm/12.2.rel1_2023.7/bin/../lib/gcc/arm-none-eabi/12.2.1/thumb/v7e-m+fp/softfp\libc_nano.a(libc_a-nano-vfprintf_i.o)
 .data          0x00000000        0x0 e:/siliconlabs/simplicitystudio/v5/developer/toolchains/gnu_arm/12.2.rel1_2023.7/bin/../lib/gcc/arm-none-eabi/12.2.1/thumb/v7e-m+fp/softfp\libc_nano.a(libc_a-nano-vfprintf_i.o)
 .bss           0x00000000        0x0 e:/siliconlabs/simplicitystudio/v5/developer/toolchains/gnu_arm/12.2.rel1_2023.7/bin/../lib/gcc/arm-none-eabi/12.2.1/thumb/v7e-m+fp/softfp\libc_nano.a(libc_a-nano-vfprintf_i.o)
 .text          0x00000000        0x0 e:/siliconlabs/simplicitystudio/v5/developer/toolchains/gnu_arm/12.2.rel1_2023.7/bin/../lib/gcc/arm-none-eabi/12.2.1/thumb/v7e-m+fp/softfp\libc_nano.a(libc_a-fvwrite.o)
 .data          0x00000000        0x0 e:/siliconlabs/simplicitystudio/v5/developer/toolchains/gnu_arm/12.2.rel1_2023.7/bin/../lib/gcc/arm-none-eabi/12.2.1/thumb/v7e-m+fp/softfp\libc_nano.a(libc_a-fvwrite.o)
 .bss           0x00000000        0x0 e:/siliconlabs/simplicitystudio/v5/developer/toolchains/gnu_arm/12.2.rel1_2023.7/bin/../lib/gcc/arm-none-eabi/12.2.1/thumb/v7e-m+fp/softfp\libc_nano.a(libc_a-fvwrite.o)
 .text.__sfvwrite_r
                0x00000000      0x2a0 e:/siliconlabs/simplicitystudio/v5/developer/toolchains/gnu_arm/12.2.rel1_2023.7/bin/../lib/gcc/arm-none-eabi/12.2.1/thumb/v7e-m+fp/softfp\libc_nano.a(libc_a-fvwrite.o)
 .debug_frame   0x00000000       0x3c e:/siliconlabs/simplicitystudio/v5/developer/toolchains/gnu_arm/12.2.rel1_2023.7/bin/../lib/gcc/arm-none-eabi/12.2.1/thumb/v7e-m+fp/softfp\libc_nano.a(libc_a-fvwrite.o)
 .ARM.attributes
                0x00000000       0x32 e:/siliconlabs/simplicitystudio/v5/developer/toolchains/gnu_arm/12.2.rel1_2023.7/bin/../lib/gcc/arm-none-eabi/12.2.1/thumb/v7e-m+fp/softfp\libc_nano.a(libc_a-fvwrite.o)
 .text          0x00000000        0x0 e:/siliconlabs/simplicitystudio/v5/developer/toolchains/gnu_arm/12.2.rel1_2023.7/bin/../lib/gcc/arm-none-eabi/12.2.1/thumb/v7e-m+fp/softfp\libc_nano.a(libc_a-wbuf.o)
 .data          0x00000000        0x0 e:/siliconlabs/simplicitystudio/v5/developer/toolchains/gnu_arm/12.2.rel1_2023.7/bin/../lib/gcc/arm-none-eabi/12.2.1/thumb/v7e-m+fp/softfp\libc_nano.a(libc_a-wbuf.o)
 .bss           0x00000000        0x0 e:/siliconlabs/simplicitystudio/v5/developer/toolchains/gnu_arm/12.2.rel1_2023.7/bin/../lib/gcc/arm-none-eabi/12.2.1/thumb/v7e-m+fp/softfp\libc_nano.a(libc_a-wbuf.o)
 .text.__swbuf  0x00000000       0x10 e:/siliconlabs/simplicitystudio/v5/developer/toolchains/gnu_arm/12.2.rel1_2023.7/bin/../lib/gcc/arm-none-eabi/12.2.1/thumb/v7e-m+fp/softfp\libc_nano.a(libc_a-wbuf.o)
 .text          0x00000000        0x0 e:/siliconlabs/simplicitystudio/v5/developer/toolchains/gnu_arm/12.2.rel1_2023.7/bin/../lib/gcc/arm-none-eabi/12.2.1/thumb/v7e-m+fp/softfp\libc_nano.a(libc_a-wsetup.o)
 .data          0x00000000        0x0 e:/siliconlabs/simplicitystudio/v5/developer/toolchains/gnu_arm/12.2.rel1_2023.7/bin/../lib/gcc/arm-none-eabi/12.2.1/thumb/v7e-m+fp/softfp\libc_nano.a(libc_a-wsetup.o)
 .bss           0x00000000        0x0 e:/siliconlabs/simplicitystudio/v5/developer/toolchains/gnu_arm/12.2.rel1_2023.7/bin/../lib/gcc/arm-none-eabi/12.2.1/thumb/v7e-m+fp/softfp\libc_nano.a(libc_a-wsetup.o)
 .text          0x00000000        0x0 e:/siliconlabs/simplicitystudio/v5/developer/toolchains/gnu_arm/12.2.rel1_2023.7/bin/../lib/gcc/arm-none-eabi/12.2.1/thumb/v7e-m+fp/softfp\libc_nano.a(libc_a-memmove.o)
 .data          0x00000000        0x0 e:/siliconlabs/simplicitystudio/v5/developer/toolchains/gnu_arm/12.2.rel1_2023.7/bin/../lib/gcc/arm-none-eabi/12.2.1/thumb/v7e-m+fp/softfp\libc_nano.a(libc_a-memmove.o)
 .bss           0x00000000        0x0 e:/siliconlabs/simplicitystudio/v5/developer/toolchains/gnu_arm/12.2.rel1_2023.7/bin/../lib/gcc/arm-none-eabi/12.2.1/thumb/v7e-m+fp/softfp\libc_nano.a(libc_a-memmove.o)
 .text.memmove  0x00000000       0x34 e:/siliconlabs/simplicitystudio/v5/developer/toolchains/gnu_arm/12.2.rel1_2023.7/bin/../lib/gcc/arm-none-eabi/12.2.1/thumb/v7e-m+fp/softfp\libc_nano.a(libc_a-memmove.o)
 .debug_frame   0x00000000       0x28 e:/siliconlabs/simplicitystudio/v5/developer/toolchains/gnu_arm/12.2.rel1_2023.7/bin/../lib/gcc/arm-none-eabi/12.2.1/thumb/v7e-m+fp/softfp\libc_nano.a(libc_a-memmove.o)
 .ARM.attributes
                0x00000000       0x32 e:/siliconlabs/simplicitystudio/v5/developer/toolchains/gnu_arm/12.2.rel1_2023.7/bin/../lib/gcc/arm-none-eabi/12.2.1/thumb/v7e-m+fp/softfp\libc_nano.a(libc_a-memmove.o)
 .text          0x00000000        0x0 e:/siliconlabs/simplicitystudio/v5/developer/toolchains/gnu_arm/12.2.rel1_2023.7/bin/../lib/gcc/arm-none-eabi/12.2.1/thumb/v7e-m+fp/softfp\libc_nano.a(libc_a-signal.o)
 .data          0x00000000        0x0 e:/siliconlabs/simplicitystudio/v5/developer/toolchains/gnu_arm/12.2.rel1_2023.7/bin/../lib/gcc/arm-none-eabi/12.2.1/thumb/v7e-m+fp/softfp\libc_nano.a(libc_a-signal.o)
 .bss           0x00000000        0x0 e:/siliconlabs/simplicitystudio/v5/developer/toolchains/gnu_arm/12.2.rel1_2023.7/bin/../lib/gcc/arm-none-eabi/12.2.1/thumb/v7e-m+fp/softfp\libc_nano.a(libc_a-signal.o)
 .text._init_signal_r
                0x00000000       0x28 e:/siliconlabs/simplicitystudio/v5/developer/toolchains/gnu_arm/12.2.rel1_2023.7/bin/../lib/gcc/arm-none-eabi/12.2.1/thumb/v7e-m+fp/softfp\libc_nano.a(libc_a-signal.o)
 .text._signal_r
                0x00000000       0x30 e:/siliconlabs/simplicitystudio/v5/developer/toolchains/gnu_arm/12.2.rel1_2023.7/bin/../lib/gcc/arm-none-eabi/12.2.1/thumb/v7e-m+fp/softfp\libc_nano.a(libc_a-signal.o)
 .text.__sigtramp_r
                0x00000000       0x48 e:/siliconlabs/simplicitystudio/v5/developer/toolchains/gnu_arm/12.2.rel1_2023.7/bin/../lib/gcc/arm-none-eabi/12.2.1/thumb/v7e-m+fp/softfp\libc_nano.a(libc_a-signal.o)
 .text.signal   0x00000000       0x10 e:/siliconlabs/simplicitystudio/v5/developer/toolchains/gnu_arm/12.2.rel1_2023.7/bin/../lib/gcc/arm-none-eabi/12.2.1/thumb/v7e-m+fp/softfp\libc_nano.a(libc_a-signal.o)
 .text._init_signal
                0x00000000        0xc e:/siliconlabs/simplicitystudio/v5/developer/toolchains/gnu_arm/12.2.rel1_2023.7/bin/../lib/gcc/arm-none-eabi/12.2.1/thumb/v7e-m+fp/softfp\libc_nano.a(libc_a-signal.o)
 .text.__sigtramp
                0x00000000       0x10 e:/siliconlabs/simplicitystudio/v5/developer/toolchains/gnu_arm/12.2.rel1_2023.7/bin/../lib/gcc/arm-none-eabi/12.2.1/thumb/v7e-m+fp/softfp\libc_nano.a(libc_a-signal.o)
 .text          0x00000000        0x0 e:/siliconlabs/simplicitystudio/v5/developer/toolchains/gnu_arm/12.2.rel1_2023.7/bin/../lib/gcc/arm-none-eabi/12.2.1/thumb/v7e-m+fp/softfp\libc_nano.a(libc_a-signalr.o)
 .data          0x00000000        0x0 e:/siliconlabs/simplicitystudio/v5/developer/toolchains/gnu_arm/12.2.rel1_2023.7/bin/../lib/gcc/arm-none-eabi/12.2.1/thumb/v7e-m+fp/softfp\libc_nano.a(libc_a-signalr.o)
 .bss           0x00000000        0x0 e:/siliconlabs/simplicitystudio/v5/developer/toolchains/gnu_arm/12.2.rel1_2023.7/bin/../lib/gcc/arm-none-eabi/12.2.1/thumb/v7e-m+fp/softfp\libc_nano.a(libc_a-signalr.o)
 .data          0x00000000        0x0 e:/siliconlabs/simplicitystudio/v5/developer/toolchains/gnu_arm/12.2.rel1_2023.7/bin/../lib/gcc/arm-none-eabi/12.2.1/thumb/v7e-m+fp/softfp\libc_nano.a(libc_a-memchr.o)
 .bss           0x00000000        0x0 e:/siliconlabs/simplicitystudio/v5/developer/toolchains/gnu_arm/12.2.rel1_2023.7/bin/../lib/gcc/arm-none-eabi/12.2.1/thumb/v7e-m+fp/softfp\libc_nano.a(libc_a-memchr.o)
 .text          0x00000000        0x0 e:/siliconlabs/simplicitystudio/v5/developer/toolchains/gnu_arm/12.2.rel1_2023.7/bin/../lib/gcc/arm-none-eabi/12.2.1/thumb/v7e-m+fp/softfp\libc_nano.a(libc_a-makebuf.o)
 .data          0x00000000        0x0 e:/siliconlabs/simplicitystudio/v5/developer/toolchains/gnu_arm/12.2.rel1_2023.7/bin/../lib/gcc/arm-none-eabi/12.2.1/thumb/v7e-m+fp/softfp\libc_nano.a(libc_a-makebuf.o)
 .bss           0x00000000        0x0 e:/siliconlabs/simplicitystudio/v5/developer/toolchains/gnu_arm/12.2.rel1_2023.7/bin/../lib/gcc/arm-none-eabi/12.2.1/thumb/v7e-m+fp/softfp\libc_nano.a(libc_a-makebuf.o)
 .text          0x00000000        0x0 e:/siliconlabs/simplicitystudio/v5/developer/toolchains/gnu_arm/12.2.rel1_2023.7/bin/../lib/gcc/arm-none-eabi/12.2.1/thumb/v7e-m+fp/softfp\libc_nano.a(libc_a-fstatr.o)
 .data          0x00000000        0x0 e:/siliconlabs/simplicitystudio/v5/developer/toolchains/gnu_arm/12.2.rel1_2023.7/bin/../lib/gcc/arm-none-eabi/12.2.1/thumb/v7e-m+fp/softfp\libc_nano.a(libc_a-fstatr.o)
 .bss           0x00000000        0x0 e:/siliconlabs/simplicitystudio/v5/developer/toolchains/gnu_arm/12.2.rel1_2023.7/bin/../lib/gcc/arm-none-eabi/12.2.1/thumb/v7e-m+fp/softfp\libc_nano.a(libc_a-fstatr.o)
 .text          0x00000000        0x0 e:/siliconlabs/simplicitystudio/v5/developer/toolchains/gnu_arm/12.2.rel1_2023.7/bin/../lib/gcc/arm-none-eabi/12.2.1/thumb/v7e-m+fp/softfp\libc_nano.a(libc_a-isattyr.o)
 .data          0x00000000        0x0 e:/siliconlabs/simplicitystudio/v5/developer/toolchains/gnu_arm/12.2.rel1_2023.7/bin/../lib/gcc/arm-none-eabi/12.2.1/thumb/v7e-m+fp/softfp\libc_nano.a(libc_a-isattyr.o)
 .bss           0x00000000        0x0 e:/siliconlabs/simplicitystudio/v5/developer/toolchains/gnu_arm/12.2.rel1_2023.7/bin/../lib/gcc/arm-none-eabi/12.2.1/thumb/v7e-m+fp/softfp\libc_nano.a(libc_a-isattyr.o)
 .text          0x00000000        0x0 e:/siliconlabs/simplicitystudio/v5/developer/toolchains/gnu_arm/12.2.rel1_2023.7/bin/../lib/gcc/arm-none-eabi/12.2.1/thumb/v7e-m+fp/softfp/crtend.o
 .data          0x00000000        0x0 e:/siliconlabs/simplicitystudio/v5/developer/toolchains/gnu_arm/12.2.rel1_2023.7/bin/../lib/gcc/arm-none-eabi/12.2.1/thumb/v7e-m+fp/softfp/crtend.o
 .bss           0x00000000        0x0 e:/siliconlabs/simplicitystudio/v5/developer/toolchains/gnu_arm/12.2.rel1_2023.7/bin/../lib/gcc/arm-none-eabi/12.2.1/thumb/v7e-m+fp/softfp/crtend.o
 .rodata.all_implied_fbits
                0x00000000       0x24 e:/siliconlabs/simplicitystudio/v5/developer/toolchains/gnu_arm/12.2.rel1_2023.7/bin/../lib/gcc/arm-none-eabi/12.2.1/thumb/v7e-m+fp/softfp/crtend.o
 .eh_frame      0x00000000        0x4 e:/siliconlabs/simplicitystudio/v5/developer/toolchains/gnu_arm/12.2.rel1_2023.7/bin/../lib/gcc/arm-none-eabi/12.2.1/thumb/v7e-m+fp/softfp/crtend.o
 .text          0x00000000        0x0 e:/siliconlabs/simplicitystudio/v5/developer/toolchains/gnu_arm/12.2.rel1_2023.7/bin/../lib/gcc/arm-none-eabi/12.2.1/thumb/v7e-m+fp/softfp/crtn.o
 .data          0x00000000        0x0 e:/siliconlabs/simplicitystudio/v5/developer/toolchains/gnu_arm/12.2.rel1_2023.7/bin/../lib/gcc/arm-none-eabi/12.2.1/thumb/v7e-m+fp/softfp/crtn.o
 .bss           0x00000000        0x0 e:/siliconlabs/simplicitystudio/v5/developer/toolchains/gnu_arm/12.2.rel1_2023.7/bin/../lib/gcc/arm-none-eabi/12.2.1/thumb/v7e-m+fp/softfp/crtn.o

Memory Configuration

Name             Origin             Length             Attributes
FLASH            0x00000000         0x00200000         xr
RAM              0x20000000         0x00080000         xrw
*default*        0x00000000         0xffffffff

Linker script and memory map

LOAD e:/siliconlabs/simplicitystudio/v5/developer/toolchains/gnu_arm/12.2.rel1_2023.7/bin/../lib/gcc/arm-none-eabi/12.2.1/thumb/v7e-m+fp/softfp/crti.o
LOAD e:/siliconlabs/simplicitystudio/v5/developer/toolchains/gnu_arm/12.2.rel1_2023.7/bin/../lib/gcc/arm-none-eabi/12.2.1/thumb/v7e-m+fp/softfp/crtbegin.o
LOAD e:/siliconlabs/simplicitystudio/v5/developer/toolchains/gnu_arm/12.2.rel1_2023.7/bin/../lib/gcc/arm-none-eabi/12.2.1/thumb/v7e-m+fp/softfp/crt0.o
START GROUP
LOAD ./app.o
LOAD ./main.o
LOAD ./usb_composite_app.o
LOAD ./autogen/sl_board_default_init.o
LOAD ./autogen/sl_device_init_clocks.o
LOAD ./autogen/sl_event_handler.o
LOAD ./autogen/sl_usbd_class_vendor_instances.o
LOAD ./autogen/sl_usbd_configuration_instances.o
LOAD ./autogen/sl_usbd_init.o
LOAD ./gecko_sdk_4.4.4/hardware/board/src/sl_board_control_gpio.o
LOAD ./gecko_sdk_4.4.4/hardware/board/src/sl_board_init.o
LOAD ./gecko_sdk_4.4.4/platform/CMSIS/RTOS2/Source/os_systick.o
LOAD ./gecko_sdk_4.4.4/platform/Device/SiliconLabs/EFM32GG11B/Source/startup_efm32gg11b.o
LOAD ./gecko_sdk_4.4.4/platform/Device/SiliconLabs/EFM32GG11B/Source/system_efm32gg11b.o
LOAD ./gecko_sdk_4.4.4/platform/common/src/sl_assert.o
LOAD ./gecko_sdk_4.4.4/platform/common/src/sl_string.o
LOAD ./gecko_sdk_4.4.4/platform/common/src/sl_syscalls.o
LOAD ./gecko_sdk_4.4.4/platform/common/toolchain/src/sl_memory.o
LOAD ./gecko_sdk_4.4.4/platform/emlib/src/em_cmu.o
LOAD ./gecko_sdk_4.4.4/platform/emlib/src/em_core.o
LOAD ./gecko_sdk_4.4.4/platform/emlib/src/em_emu.o
LOAD ./gecko_sdk_4.4.4/platform/emlib/src/em_gpio.o
LOAD ./gecko_sdk_4.4.4/platform/emlib/src/em_msc.o
LOAD ./gecko_sdk_4.4.4/platform/emlib/src/em_system.o
LOAD ./gecko_sdk_4.4.4/platform/service/device_init/src/sl_device_init_dcdc_s1.o
LOAD ./gecko_sdk_4.4.4/platform/service/device_init/src/sl_device_init_emu_s1.o
LOAD ./gecko_sdk_4.4.4/platform/service/device_init/src/sl_device_init_hfxo_s1.o
LOAD ./gecko_sdk_4.4.4/platform/service/device_init/src/sl_device_init_lfxo_s1.o
LOAD ./gecko_sdk_4.4.4/platform/service/device_init/src/sl_device_init_nvic.o
LOAD ./gecko_sdk_4.4.4/platform/service/system/src/sl_system_init.o
LOAD ./gecko_sdk_4.4.4/platform/service/system/src/sl_system_kernel.o
LOAD ./gecko_sdk_4.4.4/platform/service/udelay/src/sl_udelay.o
LOAD ./gecko_sdk_4.4.4/platform/service/udelay/src/sl_udelay_armv6m_gcc.o
LOAD ./gecko_sdk_4.4.4/protocol/usb/src/sl_usbd_class_vendor.o
LOAD ./gecko_sdk_4.4.4/protocol/usb/src/sl_usbd_core.o
LOAD ./gecko_sdk_4.4.4/protocol/usb/src/sl_usbd_core_ep.o
LOAD ./gecko_sdk_4.4.4/protocol/usb/src/sl_usbd_core_os.o
LOAD ./gecko_sdk_4.4.4/protocol/usb/src/sl_usbd_driver_dwc_otg_fs.o
LOAD ./gecko_sdk_4.4.4/util/silicon_labs/silabs_core/memory_manager/sl_malloc.o
LOAD ./gecko_sdk_4.4.4/util/third_party/freertos/cmsis/Source/cmsis_os2.o
LOAD ./gecko_sdk_4.4.4/util/third_party/freertos/kernel/croutine.o
LOAD ./gecko_sdk_4.4.4/util/third_party/freertos/kernel/event_groups.o
LOAD ./gecko_sdk_4.4.4/util/third_party/freertos/kernel/list.o
LOAD ./gecko_sdk_4.4.4/util/third_party/freertos/kernel/queue.o
LOAD ./gecko_sdk_4.4.4/util/third_party/freertos/kernel/stream_buffer.o
LOAD ./gecko_sdk_4.4.4/util/third_party/freertos/kernel/tasks.o
LOAD ./gecko_sdk_4.4.4/util/third_party/freertos/kernel/timers.o
LOAD ./gecko_sdk_4.4.4/util/third_party/freertos/kernel/portable/GCC/ARM_CM4F/port.o
LOAD ./gecko_sdk_4.4.4/util/third_party/freertos/kernel/portable/MemMang/heap_4.o
LOAD e:/siliconlabs/simplicitystudio/v5/developer/toolchains/gnu_arm/12.2.rel1_2023.7/bin/../lib/gcc/arm-none-eabi/12.2.1/thumb/v7e-m+fp/softfp\libgcc.a
LOAD e:/siliconlabs/simplicitystudio/v5/developer/toolchains/gnu_arm/12.2.rel1_2023.7/bin/../lib/gcc/arm-none-eabi/12.2.1/thumb/v7e-m+fp/softfp\libc_nano.a
LOAD e:/siliconlabs/simplicitystudio/v5/developer/toolchains/gnu_arm/12.2.rel1_2023.7/bin/../lib/gcc/arm-none-eabi/12.2.1/thumb/v7e-m+fp/softfp\libm.a
LOAD e:/siliconlabs/simplicitystudio/v5/developer/toolchains/gnu_arm/12.2.rel1_2023.7/bin/../lib/gcc/arm-none-eabi/12.2.1/thumb/v7e-m+fp/softfp\libnosys.a
END GROUP
START GROUP
LOAD e:/siliconlabs/simplicitystudio/v5/developer/toolchains/gnu_arm/12.2.rel1_2023.7/bin/../lib/gcc/arm-none-eabi/12.2.1/thumb/v7e-m+fp/softfp\libgcc.a
LOAD e:/siliconlabs/simplicitystudio/v5/developer/toolchains/gnu_arm/12.2.rel1_2023.7/bin/../lib/gcc/arm-none-eabi/12.2.1/thumb/v7e-m+fp/softfp\libc_nano.a
LOAD e:/siliconlabs/simplicitystudio/v5/developer/toolchains/gnu_arm/12.2.rel1_2023.7/bin/../lib/gcc/arm-none-eabi/12.2.1/thumb/v7e-m+fp/softfp\libnosys.a
END GROUP
START GROUP
LOAD e:/siliconlabs/simplicitystudio/v5/developer/toolchains/gnu_arm/12.2.rel1_2023.7/bin/../lib/gcc/arm-none-eabi/12.2.1/thumb/v7e-m+fp/softfp\libgcc.a
LOAD e:/siliconlabs/simplicitystudio/v5/developer/toolchains/gnu_arm/12.2.rel1_2023.7/bin/../lib/gcc/arm-none-eabi/12.2.1/thumb/v7e-m+fp/softfp\libg_nano.a
LOAD e:/siliconlabs/simplicitystudio/v5/developer/toolchains/gnu_arm/12.2.rel1_2023.7/bin/../lib/gcc/arm-none-eabi/12.2.1/thumb/v7e-m+fp/softfp\libc_nano.a
END GROUP
START GROUP
LOAD e:/siliconlabs/simplicitystudio/v5/developer/toolchains/gnu_arm/12.2.rel1_2023.7/bin/../lib/gcc/arm-none-eabi/12.2.1/thumb/v7e-m+fp/softfp\libgcc.a
LOAD e:/siliconlabs/simplicitystudio/v5/developer/toolchains/gnu_arm/12.2.rel1_2023.7/bin/../lib/gcc/arm-none-eabi/12.2.1/thumb/v7e-m+fp/softfp\libc_nano.a
END GROUP
LOAD e:/siliconlabs/simplicitystudio/v5/developer/toolchains/gnu_arm/12.2.rel1_2023.7/bin/../lib/gcc/arm-none-eabi/12.2.1/thumb/v7e-m+fp/softfp/crtend.o
LOAD e:/siliconlabs/simplicitystudio/v5/developer/toolchains/gnu_arm/12.2.rel1_2023.7/bin/../lib/gcc/arm-none-eabi/12.2.1/thumb/v7e-m+fp/softfp/crtn.o

.text           0x00000000     0x9594
                0x00000000                linker_vectors_begin = .
 *(.vectors)
 .vectors       0x00000000      0x158 ./gecko_sdk_4.4.4/platform/Device/SiliconLabs/EFM32GG11B/Source/startup_efm32gg11b.o
                0x00000000                __Vectors
                0x00000158                linker_vectors_end = .
                0x00000158                __Vectors_End = .
                0x00000158                __Vectors_Size = (__Vectors_End - __Vectors)
                0x00000158                linker_code_begin = .
 *(SORT_BY_ALIGNMENT(.text*))
 *fill*         0x00000158        0x8 
 .text.SVC_Handler
                0x00000160       0x24 ./gecko_sdk_4.4.4/util/third_party/freertos/kernel/portable/GCC/ARM_CM4F/port.o
                0x00000160                SVC_Handler
 *fill*         0x00000184        0xc 
 .text.PendSV_Handler
                0x00000190       0x64 ./gecko_sdk_4.4.4/util/third_party/freertos/kernel/portable/GCC/ARM_CM4F/port.o
                0x00000190                PendSV_Handler
 *fill*         0x000001f4        0xc 
 .text          0x00000200       0xa0 e:/siliconlabs/simplicitystudio/v5/developer/toolchains/gnu_arm/12.2.rel1_2023.7/bin/../lib/gcc/arm-none-eabi/12.2.1/thumb/v7e-m+fp/softfp\libc_nano.a(libc_a-memchr.o)
                0x00000200                memchr
 .text.deregister_tm_clones
                0x000002a0       0x1c e:/siliconlabs/simplicitystudio/v5/developer/toolchains/gnu_arm/12.2.rel1_2023.7/bin/../lib/gcc/arm-none-eabi/12.2.1/thumb/v7e-m+fp/softfp/crtbegin.o
 .text.register_tm_clones
                0x000002bc       0x24 e:/siliconlabs/simplicitystudio/v5/developer/toolchains/gnu_arm/12.2.rel1_2023.7/bin/../lib/gcc/arm-none-eabi/12.2.1/thumb/v7e-m+fp/softfp/crtbegin.o
 .text.__do_global_dtors_aux
                0x000002e0       0x28 e:/siliconlabs/simplicitystudio/v5/developer/toolchains/gnu_arm/12.2.rel1_2023.7/bin/../lib/gcc/arm-none-eabi/12.2.1/thumb/v7e-m+fp/softfp/crtbegin.o
 .text.frame_dummy
                0x00000308       0x24 e:/siliconlabs/simplicitystudio/v5/developer/toolchains/gnu_arm/12.2.rel1_2023.7/bin/../lib/gcc/arm-none-eabi/12.2.1/thumb/v7e-m+fp/softfp/crtbegin.o
 .text          0x0000032c       0x7c e:/siliconlabs/simplicitystudio/v5/developer/toolchains/gnu_arm/12.2.rel1_2023.7/bin/../lib/gcc/arm-none-eabi/12.2.1/thumb/v7e-m+fp/softfp/crt0.o
                0x0000032c                _stack_init
                0x00000334                _start
                0x00000334                _mainCRTStartup
 .text.sl_device_init_clocks
                0x000003a8       0x58 ./autogen/sl_device_init_clocks.o
                0x000003a8                sl_device_init_clocks
 .text.sl_platform_init
                0x00000400       0x88 ./autogen/sl_event_handler.o
                0x00000400                sl_platform_init
 .text.sli_usbd_vendor_winusb_init
                0x00000488       0xcc ./autogen/sl_usbd_class_vendor_instances.o
                0x00000488                sli_usbd_vendor_winusb_init
 .text.sli_usbd_configuration_config0_init
                0x00000554       0x30 ./autogen/sl_usbd_configuration_instances.o
                0x00000554                sli_usbd_configuration_config0_init
 .text.sl_board_init
                0x00000584       0x18 ./gecko_sdk_4.4.4/hardware/board/src/sl_board_init.o
                0x00000584                sl_board_init
 .text.sl_board_preinit
                0x0000059c        0xc ./gecko_sdk_4.4.4/hardware/board/src/sl_board_init.o
                0x0000059c                sl_board_preinit
 .text.Reset_Handler
                0x000005a8       0x60 ./gecko_sdk_4.4.4/platform/Device/SiliconLabs/EFM32GG11B/Source/startup_efm32gg11b.o
                0x000005a8                Reset_Handler
 .text.SystemMaxCoreClockGet
                0x00000608        0x8 ./gecko_sdk_4.4.4/platform/Device/SiliconLabs/EFM32GG11B/Source/system_efm32gg11b.o
                0x00000608                SystemMaxCoreClockGet
 .text.SystemHFClockGet
                0x00000610       0x74 ./gecko_sdk_4.4.4/platform/Device/SiliconLabs/EFM32GG11B/Source/system_efm32gg11b.o
                0x00000610                SystemHFClockGet
 .text.SystemCoreClockGet
                0x00000684       0x24 ./gecko_sdk_4.4.4/platform/Device/SiliconLabs/EFM32GG11B/Source/system_efm32gg11b.o
                0x00000684                SystemCoreClockGet
 .text.SystemHFXOClockGet
                0x000006a8        0xc ./gecko_sdk_4.4.4/platform/Device/SiliconLabs/EFM32GG11B/Source/system_efm32gg11b.o
                0x000006a8                SystemHFXOClockGet
 .text.SystemHFXOClockSet
                0x000006b4       0x20 ./gecko_sdk_4.4.4/platform/Device/SiliconLabs/EFM32GG11B/Source/system_efm32gg11b.o
                0x000006b4                SystemHFXOClockSet
 .text.SystemInit
                0x000006d4       0x1c ./gecko_sdk_4.4.4/platform/Device/SiliconLabs/EFM32GG11B/Source/system_efm32gg11b.o
                0x000006d4                SystemInit
 .text.SystemLFXOClockGet
                0x000006f0        0xc ./gecko_sdk_4.4.4/platform/Device/SiliconLabs/EFM32GG11B/Source/system_efm32gg11b.o
                0x000006f0                SystemLFXOClockGet
 .text._sbrk    0x000006fc       0x20 ./gecko_sdk_4.4.4/platform/common/toolchain/src/sl_memory.o
                0x000006fc                _sbrk
 .text.setHfLeConfig
                0x0000071c       0x44 ./gecko_sdk_4.4.4/platform/emlib/src/em_cmu.o
 .text.flashWaitStateControl
                0x00000760       0x54 ./gecko_sdk_4.4.4/platform/emlib/src/em_cmu.o
 .text.EMU_VScaleWait
                0x000007b4       0x1c ./gecko_sdk_4.4.4/platform/emlib/src/em_cmu.o
 .text.EMU_VScaleGet
                0x000007d0       0x14 ./gecko_sdk_4.4.4/platform/emlib/src/em_cmu.o
 .text.syncReg  0x000007e4       0x18 ./gecko_sdk_4.4.4/platform/emlib/src/em_cmu.o
 .text.CMU_PrescToLog2
                0x000007fc       0x54 ./gecko_sdk_4.4.4/platform/emlib/src/em_cmu.o
 .text.CMU_UpdateWaitStates
                0x00000850       0x7c ./gecko_sdk_4.4.4/platform/emlib/src/em_cmu.o
                0x00000850                CMU_UpdateWaitStates
 .text.CMU_ClockEnable
                0x000008cc       0xec ./gecko_sdk_4.4.4/platform/emlib/src/em_cmu.o
                0x000008cc                CMU_ClockEnable
 .text.CMU_ClockPrescGet
                0x000009b8      0x198 ./gecko_sdk_4.4.4/platform/emlib/src/em_cmu.o
                0x000009b8                CMU_ClockPrescGet
 .text.CMU_ClockPrescSet
                0x00000b50      0x458 ./gecko_sdk_4.4.4/platform/emlib/src/em_cmu.o
                0x00000b50                CMU_ClockPrescSet
 .text.hfperClkSafePrescaler
                0x00000fa8       0x2c ./gecko_sdk_4.4.4/platform/emlib/src/em_cmu.o
 .text.hfperClkOptimizedPrescaler
                0x00000fd4       0x94 ./gecko_sdk_4.4.4/platform/emlib/src/em_cmu.o
 .text.CMU_ClockSelectGet
                0x00001068      0x14c ./gecko_sdk_4.4.4/platform/emlib/src/em_cmu.o
                0x00001068                CMU_ClockSelectGet
 .text.lfClkGet
                0x000011b4       0xd0 ./gecko_sdk_4.4.4/platform/emlib/src/em_cmu.o
 .text.adcAsyncClkGet
                0x00001284       0x64 ./gecko_sdk_4.4.4/platform/emlib/src/em_cmu.o
 .text.CMU_ClockFreqGet
                0x000012e8      0x340 ./gecko_sdk_4.4.4/platform/emlib/src/em_cmu.o
                0x000012e8                CMU_ClockFreqGet
 .text.CMU_USHFRCOBandSet
                0x00001628       0x88 ./gecko_sdk_4.4.4/platform/emlib/src/em_cmu.o
                0x00001628                CMU_USHFRCOBandSet
 .text.CMU_LFXOPrecisionSet
                0x000016b0        0xc ./gecko_sdk_4.4.4/platform/emlib/src/em_cmu.o
                0x000016b0                CMU_LFXOPrecisionSet
 .text.CMU_HFXOPrecisionSet
                0x000016bc        0xc ./gecko_sdk_4.4.4/platform/emlib/src/em_cmu.o
                0x000016bc                CMU_HFXOPrecisionSet
 .text.CMU_OscillatorTuningWait
                0x000016c8       0x4c ./gecko_sdk_4.4.4/platform/emlib/src/em_cmu.o
                0x000016c8                CMU_OscillatorTuningWait
 .text.CMU_OscillatorEnable
                0x00001714      0x128 ./gecko_sdk_4.4.4/platform/emlib/src/em_cmu.o
                0x00001714                CMU_OscillatorEnable
 .text.sli_em_cmu_HFClockSelectHFXO
                0x0000183c       0x68 ./gecko_sdk_4.4.4/platform/emlib/src/em_cmu.o
                0x0000183c                sli_em_cmu_HFClockSelectHFXO
 .text.CMU_HFXOInit
                0x000018a4       0xa0 ./gecko_sdk_4.4.4/platform/emlib/src/em_cmu.o
                0x000018a4                CMU_HFXOInit
 .text.CMU_LFXOInit
                0x00001944       0x58 ./gecko_sdk_4.4.4/platform/emlib/src/em_cmu.o
                0x00001944                CMU_LFXOInit
 .text.EMU_LDOStatusGet
                0x0000199c       0x14 ./gecko_sdk_4.4.4/platform/emlib/src/em_emu.o
 .text.lpGetDevinfoVrefLowHigh
                0x000019b0       0x74 ./gecko_sdk_4.4.4/platform/emlib/src/em_emu.o
 .text.EMU_VScaleWait
                0x00001a24       0x18 ./gecko_sdk_4.4.4/platform/emlib/src/em_emu.o
 .text.EMU_EM4Init
                0x00001a3c       0x40 ./gecko_sdk_4.4.4/platform/emlib/src/em_emu.o
                0x00001a3c                EMU_EM4Init
 .text.EMU_VScaleEM01
                0x00001a7c       0x98 ./gecko_sdk_4.4.4/platform/emlib/src/em_emu.o
                0x00001a7c                EMU_VScaleEM01
 .text.EMU_VScaleEM01ByClock
                0x00001b14       0x4c ./gecko_sdk_4.4.4/platform/emlib/src/em_emu.o
                0x00001b14                EMU_VScaleEM01ByClock
 .text.EMU_DCDCModeSet
                0x00001b60       0x68 ./gecko_sdk_4.4.4/platform/emlib/src/em_emu.o
                0x00001b60                EMU_DCDCModeSet
 .text.EMU_DCDCOutputVoltageSet
                0x00001bc8      0x1f0 ./gecko_sdk_4.4.4/platform/emlib/src/em_emu.o
                0x00001bc8                EMU_DCDCOutputVoltageSet
 .text.EMU_DCDCOptimizeSlice
                0x00001db8       0xdc ./gecko_sdk_4.4.4/platform/emlib/src/em_emu.o
                0x00001db8                EMU_DCDCOptimizeSlice
 .text.EMU_DCDCLnRcoBandSet
                0x00001e94       0x44 ./gecko_sdk_4.4.4/platform/emlib/src/em_emu.o
                0x00001e94                EMU_DCDCLnRcoBandSet
 .text.EMU_DCDCInit
                0x00001ed8      0x170 ./gecko_sdk_4.4.4/platform/emlib/src/em_emu.o
                0x00001ed8                EMU_DCDCInit
 .text.sl_device_init_dcdc
                0x00002048       0x2c ./gecko_sdk_4.4.4/platform/service/device_init/src/sl_device_init_dcdc_s1.o
                0x00002048                sl_device_init_dcdc
 .text.sl_device_init_hfxo
                0x00002074       0x60 ./gecko_sdk_4.4.4/platform/service/device_init/src/sl_device_init_hfxo_s1.o
                0x00002074                sl_device_init_hfxo
 .text.sl_device_init_lfxo
                0x000020d4       0x28 ./gecko_sdk_4.4.4/platform/service/device_init/src/sl_device_init_lfxo_s1.o
                0x000020d4                sl_device_init_lfxo
 .text.sl_device_init_nvic
                0x000020fc       0x3c ./gecko_sdk_4.4.4/platform/service/device_init/src/sl_device_init_nvic.o
                0x000020fc                sl_device_init_nvic
 .text.usbd_vendor_get_microsoft_ext_property_table
                0x00002138       0x34 ./gecko_sdk_4.4.4/protocol/usb/src/sl_usbd_class_vendor.o
 .text.sl_usbd_vendor_init
                0x0000216c       0xa0 ./gecko_sdk_4.4.4/protocol/usb/src/sl_usbd_class_vendor.o
                0x0000216c                sl_usbd_vendor_init
 .text.sl_usbd_vendor_create_instance
                0x0000220c       0x64 ./gecko_sdk_4.4.4/protocol/usb/src/sl_usbd_class_vendor.o
                0x0000220c                sl_usbd_vendor_create_instance
 .text.sl_usbd_vendor_add_to_configuration
                0x00002270      0x158 ./gecko_sdk_4.4.4/protocol/usb/src/sl_usbd_class_vendor.o
                0x00002270                sl_usbd_vendor_add_to_configuration
 .text.sl_usbd_vendor_add_microsoft_ext_property
                0x000023c8       0x68 ./gecko_sdk_4.4.4/protocol/usb/src/sl_usbd_class_vendor.o
                0x000023c8                sl_usbd_vendor_add_microsoft_ext_property
 .text.usbd_core_write_to_descriptor_buf
                0x00002430       0xa0 ./gecko_sdk_4.4.4/protocol/usb/src/sl_usbd_core.o
 .text.usbd_core_add_string
                0x000024d0       0x60 ./gecko_sdk_4.4.4/protocol/usb/src/sl_usbd_core.o
 .text.usbd_core_stop_descriptor_write
                0x00002530       0x48 ./gecko_sdk_4.4.4/protocol/usb/src/sl_usbd_core.o
 .text.usbd_core_send_string_descriptor
                0x00002578       0xd0 ./gecko_sdk_4.4.4/protocol/usb/src/sl_usbd_core.o
 .text.usbd_core_add_endpoint
                0x00002648      0x16c ./gecko_sdk_4.4.4/protocol/usb/src/sl_usbd_core.o
 .text.sl_usbd_core_init
                0x000027b4      0x280 ./gecko_sdk_4.4.4/protocol/usb/src/sl_usbd_core.o
                0x000027b4                sl_usbd_core_init
 .text.sl_usbd_core_start_device
                0x00002a34       0x3c ./gecko_sdk_4.4.4/protocol/usb/src/sl_usbd_core.o
                0x00002a34                sl_usbd_core_start_device
 .text.sl_usbd_core_add_configuration
                0x00002a70       0xc4 ./gecko_sdk_4.4.4/protocol/usb/src/sl_usbd_core.o
                0x00002a70                sl_usbd_core_add_configuration
 .text.sl_usbd_core_get_device_state
                0x00002b34       0x18 ./gecko_sdk_4.4.4/protocol/usb/src/sl_usbd_core.o
                0x00002b34                sl_usbd_core_get_device_state
 .text.sl_usbd_core_add_interface
                0x00002b4c      0x164 ./gecko_sdk_4.4.4/protocol/usb/src/sl_usbd_core.o
                0x00002b4c                sl_usbd_core_add_interface
 .text.sl_usbd_core_write_08b_to_descriptor_buf
                0x00002cb0       0x24 ./gecko_sdk_4.4.4/protocol/usb/src/sl_usbd_core.o
                0x00002cb0                sl_usbd_core_write_08b_to_descriptor_buf
 .text.sl_usbd_core_write_16b_to_descriptor_buf
                0x00002cd4       0x24 ./gecko_sdk_4.4.4/protocol/usb/src/sl_usbd_core.o
                0x00002cd4                sl_usbd_core_write_16b_to_descriptor_buf
 .text.sl_usbd_core_write_32b_to_descriptor_buf
                0x00002cf8       0x24 ./gecko_sdk_4.4.4/protocol/usb/src/sl_usbd_core.o
                0x00002cf8                sl_usbd_core_write_32b_to_descriptor_buf
 .text.sl_usbd_core_write_buf_to_descriptor_buf
                0x00002d1c       0x24 ./gecko_sdk_4.4.4/protocol/usb/src/sl_usbd_core.o
                0x00002d1c                sl_usbd_core_write_buf_to_descriptor_buf
 .text.sl_usbd_core_add_bulk_endpoint
                0x00002d40       0x50 ./gecko_sdk_4.4.4/protocol/usb/src/sl_usbd_core.o
                0x00002d40                sl_usbd_core_add_bulk_endpoint
 .text.sli_usbd_core_setup_event
                0x00002d90       0x3c ./gecko_sdk_4.4.4/protocol/usb/src/sl_usbd_core.o
                0x00002d90                sli_usbd_core_setup_event
 .text.sli_usbd_core_task_handler
                0x00002dcc      0x880 ./gecko_sdk_4.4.4/protocol/usb/src/sl_usbd_core.o
                0x00002dcc                sli_usbd_core_task_handler
 .text.usbd_core_get_urb
                0x0000364c       0x40 ./gecko_sdk_4.4.4/protocol/usb/src/sl_usbd_core_ep.o
 .text.usbd_core_free_urb.constprop.0
                0x0000368c       0x28 ./gecko_sdk_4.4.4/protocol/usb/src/sl_usbd_core_ep.o
 .text.sl_usbd_core_write_control_sync
                0x000036b4       0x9c ./gecko_sdk_4.4.4/protocol/usb/src/sl_usbd_core_ep.o
                0x000036b4                sl_usbd_core_write_control_sync
 .text.sli_usbd_core_stall_control_endpoint
                0x00003750       0x74 ./gecko_sdk_4.4.4/protocol/usb/src/sl_usbd_core_ep.o
                0x00003750                sli_usbd_core_stall_control_endpoint
 .text.sli_usbd_core_init_endpoint
                0x000037c4       0xa4 ./gecko_sdk_4.4.4/protocol/usb/src/sl_usbd_core_ep.o
                0x000037c4                sli_usbd_core_init_endpoint
 .text.sl_usbd_core_endpoint_transfer_async
                0x00003868       0xfc ./gecko_sdk_4.4.4/protocol/usb/src/sl_usbd_core_ep.o
                0x00003868                sl_usbd_core_endpoint_transfer_async
 .text.sli_usbd_core_open_endpoint
                0x00003964      0x110 ./gecko_sdk_4.4.4/protocol/usb/src/sl_usbd_core_ep.o
                0x00003964                sli_usbd_core_open_endpoint
 .text.sli_usbd_core_close_endpoint
                0x00003a74       0xc0 ./gecko_sdk_4.4.4/protocol/usb/src/sl_usbd_core_ep.o
                0x00003a74                sli_usbd_core_close_endpoint
 .text.sl_usbd_core_stall_endpoint
                0x00003b34       0x8c ./gecko_sdk_4.4.4/protocol/usb/src/sl_usbd_core_ep.o
                0x00003b34                sl_usbd_core_stall_endpoint
 .text.sl_usbd_core_is_endpoint_stalled
                0x00003bc0       0x30 ./gecko_sdk_4.4.4/protocol/usb/src/sl_usbd_core_ep.o
                0x00003bc0                sl_usbd_core_is_endpoint_stalled
 .text.sl_usbd_core_endpoint_read_complete
                0x00003bf0       0x44 ./gecko_sdk_4.4.4/protocol/usb/src/sl_usbd_core_ep.o
                0x00003bf0                sl_usbd_core_endpoint_read_complete
 .text.sl_usbd_core_endpoint_write_complete
                0x00003c34       0x3c ./gecko_sdk_4.4.4/protocol/usb/src/sl_usbd_core_ep.o
                0x00003c34                sl_usbd_core_endpoint_write_complete
 .text.sl_usbd_core_endpoint_write_zlp
                0x00003c70       0xc4 ./gecko_sdk_4.4.4/protocol/usb/src/sl_usbd_core_ep.o
                0x00003c70                sl_usbd_core_endpoint_write_zlp
 .text.sl_usbd_core_endpoint_read_zlp
                0x00003d34       0xdc ./gecko_sdk_4.4.4/protocol/usb/src/sl_usbd_core_ep.o
                0x00003d34                sl_usbd_core_endpoint_read_zlp
 .text.sli_usbd_core_os_create_task
                0x00003e10       0x38 ./gecko_sdk_4.4.4/protocol/usb/src/sl_usbd_core_os.o
                0x00003e10                sli_usbd_core_os_create_task
 .text.sli_usbd_core_os_create_endpoint_signal
                0x00003e48       0x44 ./gecko_sdk_4.4.4/protocol/usb/src/sl_usbd_core_os.o
                0x00003e48                sli_usbd_core_os_create_endpoint_signal
 .text.sli_usbd_core_os_delete_endpoint_signal
                0x00003e8c       0x24 ./gecko_sdk_4.4.4/protocol/usb/src/sl_usbd_core_os.o
                0x00003e8c                sli_usbd_core_os_delete_endpoint_signal
 .text.sli_usbd_core_os_pend_endpoint_signal
                0x00003eb0       0x48 ./gecko_sdk_4.4.4/protocol/usb/src/sl_usbd_core_os.o
                0x00003eb0                sli_usbd_core_os_pend_endpoint_signal
 .text.sli_usbd_core_os_abort_endpoint_signal
                0x00003ef8       0x20 ./gecko_sdk_4.4.4/protocol/usb/src/sl_usbd_core_os.o
                0x00003ef8                sli_usbd_core_os_abort_endpoint_signal
 .text.sli_usbd_core_os_create_endpoint_lock
                0x00003f18       0x40 ./gecko_sdk_4.4.4/protocol/usb/src/sl_usbd_core_os.o
                0x00003f18                sli_usbd_core_os_create_endpoint_lock
 .text.sli_usbd_core_os_delete_endpoint_lock
                0x00003f58       0x24 ./gecko_sdk_4.4.4/protocol/usb/src/sl_usbd_core_os.o
                0x00003f58                sli_usbd_core_os_delete_endpoint_lock
 .text.sli_usbd_core_os_acquire_endpoint_lock
                0x00003f7c       0x24 ./gecko_sdk_4.4.4/protocol/usb/src/sl_usbd_core_os.o
                0x00003f7c                sli_usbd_core_os_acquire_endpoint_lock
 .text.sli_usbd_core_os_release_endpoint_lock
                0x00003fa0       0x20 ./gecko_sdk_4.4.4/protocol/usb/src/sl_usbd_core_os.o
                0x00003fa0                sli_usbd_core_os_release_endpoint_lock
 .text.sli_usbd_core_os_get_core_event
                0x00003fc0       0x24 ./gecko_sdk_4.4.4/protocol/usb/src/sl_usbd_core_os.o
                0x00003fc0                sli_usbd_core_os_get_core_event
 .text.sli_usbd_core_os_put_core_event
                0x00003fe4       0x1c ./gecko_sdk_4.4.4/protocol/usb/src/sl_usbd_core_os.o
                0x00003fe4                sli_usbd_core_os_put_core_event
 .text.sli_usbd_driver_init
                0x00004000      0x1e4 ./gecko_sdk_4.4.4/protocol/usb/src/sl_usbd_driver_dwc_otg_fs.o
                0x00004000                sli_usbd_driver_init
 .text.sli_usbd_driver_get_endpoint_info
                0x000041e4       0x14 ./gecko_sdk_4.4.4/protocol/usb/src/sl_usbd_driver_dwc_otg_fs.o
                0x000041e4                sli_usbd_driver_get_endpoint_info
 .text.sli_usbd_driver_start
                0x000041f8       0xa8 ./gecko_sdk_4.4.4/protocol/usb/src/sl_usbd_driver_dwc_otg_fs.o
                0x000041f8                sli_usbd_driver_start
 .text.sli_usbd_driver_set_address
                0x000042a0       0x24 ./gecko_sdk_4.4.4/protocol/usb/src/sl_usbd_driver_dwc_otg_fs.o
                0x000042a0                sli_usbd_driver_set_address
 .text.sli_usbd_driver_open_endpoint
                0x000042c4       0xc8 ./gecko_sdk_4.4.4/protocol/usb/src/sl_usbd_driver_dwc_otg_fs.o
                0x000042c4                sli_usbd_driver_open_endpoint
 .text.sli_usbd_driver_close_endpoint
                0x0000438c       0x68 ./gecko_sdk_4.4.4/protocol/usb/src/sl_usbd_driver_dwc_otg_fs.o
                0x0000438c                sli_usbd_driver_close_endpoint
 .text.sli_usbd_driver_endpoint_rx_start
                0x000043f4       0xec ./gecko_sdk_4.4.4/protocol/usb/src/sl_usbd_driver_dwc_otg_fs.o
                0x000043f4                sli_usbd_driver_endpoint_rx_start
 .text.sli_usbd_driver_endpoint_rx
                0x000044e0       0x2c ./gecko_sdk_4.4.4/protocol/usb/src/sl_usbd_driver_dwc_otg_fs.o
                0x000044e0                sli_usbd_driver_endpoint_rx
 .text.sli_usbd_driver_endpoint_tx
                0x0000450c       0x68 ./gecko_sdk_4.4.4/protocol/usb/src/sl_usbd_driver_dwc_otg_fs.o
                0x0000450c                sli_usbd_driver_endpoint_tx
 .text.sli_usbd_driver_endpoint_tx_start
                0x00004574       0xb4 ./gecko_sdk_4.4.4/protocol/usb/src/sl_usbd_driver_dwc_otg_fs.o
                0x00004574                sli_usbd_driver_endpoint_tx_start
 .text.sli_usbd_driver_abort_endpoint
                0x00004628       0xa8 ./gecko_sdk_4.4.4/protocol/usb/src/sl_usbd_driver_dwc_otg_fs.o
                0x00004628                sli_usbd_driver_abort_endpoint
 .text.sli_usbd_driver_stall_endpoint
                0x000046d0       0x90 ./gecko_sdk_4.4.4/protocol/usb/src/sl_usbd_driver_dwc_otg_fs.o
                0x000046d0                sli_usbd_driver_stall_endpoint
 .text.sli_usbd_driver_irq_handler
                0x00004760      0x3a4 ./gecko_sdk_4.4.4/protocol/usb/src/sl_usbd_driver_dwc_otg_fs.o
                0x00004760                sli_usbd_driver_irq_handler
 .text.USB_IRQHandler
                0x00004b04       0x40 ./gecko_sdk_4.4.4/protocol/usb/src/sl_usbd_driver_dwc_otg_fs.o
                0x00004b04                USB_IRQHandler
 .text.osKernelInitialize
                0x00004b44       0x34 ./gecko_sdk_4.4.4/util/third_party/freertos/cmsis/Source/cmsis_os2.o
                0x00004b44                osKernelInitialize
 .text.osKernelStart
                0x00004b78       0x48 ./gecko_sdk_4.4.4/util/third_party/freertos/cmsis/Source/cmsis_os2.o
                0x00004b78                osKernelStart
 .text.osThreadNew
                0x00004bc0       0xa4 ./gecko_sdk_4.4.4/util/third_party/freertos/cmsis/Source/cmsis_os2.o
                0x00004bc0                osThreadNew
 .text.osMutexNew
                0x00004c64       0x94 ./gecko_sdk_4.4.4/util/third_party/freertos/cmsis/Source/cmsis_os2.o
                0x00004c64                osMutexNew
 .text.osMutexAcquire
                0x00004cf8       0x60 ./gecko_sdk_4.4.4/util/third_party/freertos/cmsis/Source/cmsis_os2.o
                0x00004cf8                osMutexAcquire
 .text.osMutexRelease
                0x00004d58       0x58 ./gecko_sdk_4.4.4/util/third_party/freertos/cmsis/Source/cmsis_os2.o
                0x00004d58                osMutexRelease
 .text.osMutexDelete
                0x00004db0       0x48 ./gecko_sdk_4.4.4/util/third_party/freertos/cmsis/Source/cmsis_os2.o
                0x00004db0                osMutexDelete
 .text.osSemaphoreNew
                0x00004df8       0xb0 ./gecko_sdk_4.4.4/util/third_party/freertos/cmsis/Source/cmsis_os2.o
                0x00004df8                osSemaphoreNew
 .text.osSemaphoreAcquire
                0x00004ea8       0x74 ./gecko_sdk_4.4.4/util/third_party/freertos/cmsis/Source/cmsis_os2.o
                0x00004ea8                osSemaphoreAcquire
 .text.osSemaphoreRelease
                0x00004f1c       0x6c ./gecko_sdk_4.4.4/util/third_party/freertos/cmsis/Source/cmsis_os2.o
                0x00004f1c                osSemaphoreRelease
 .text.osSemaphoreDelete
                0x00004f88       0x40 ./gecko_sdk_4.4.4/util/third_party/freertos/cmsis/Source/cmsis_os2.o
                0x00004f88                osSemaphoreDelete
 .text.osMessageQueueNew
                0x00004fc8       0x8c ./gecko_sdk_4.4.4/util/third_party/freertos/cmsis/Source/cmsis_os2.o
                0x00004fc8                osMessageQueueNew
 .text.osMessageQueuePut
                0x00005054       0x7c ./gecko_sdk_4.4.4/util/third_party/freertos/cmsis/Source/cmsis_os2.o
                0x00005054                osMessageQueuePut
 .text.osMessageQueueGet
                0x000050d0       0x78 ./gecko_sdk_4.4.4/util/third_party/freertos/cmsis/Source/cmsis_os2.o
                0x000050d0                osMessageQueueGet
 .text.vApplicationStackOverflowHook
                0x00005148       0x10 ./gecko_sdk_4.4.4/util/third_party/freertos/cmsis/Source/cmsis_os2.o
                0x00005148                vApplicationStackOverflowHook
 .text.vApplicationGetIdleTaskMemory
                0x00005158       0x18 ./gecko_sdk_4.4.4/util/third_party/freertos/cmsis/Source/cmsis_os2.o
                0x00005158                vApplicationGetIdleTaskMemory
 .text.vApplicationGetTimerTaskMemory
                0x00005170       0x18 ./gecko_sdk_4.4.4/util/third_party/freertos/cmsis/Source/cmsis_os2.o
                0x00005170                vApplicationGetTimerTaskMemory
 .text.xQueueGenericReset
                0x00005188       0x7c ./gecko_sdk_4.4.4/util/third_party/freertos/kernel/queue.o
                0x00005188                xQueueGenericReset
 .text.xQueueGenericCreateStatic
                0x00005204       0x7c ./gecko_sdk_4.4.4/util/third_party/freertos/kernel/queue.o
                0x00005204                xQueueGenericCreateStatic
 .text.xQueueGenericCreate
                0x00005280       0x78 ./gecko_sdk_4.4.4/util/third_party/freertos/kernel/queue.o
                0x00005280                xQueueGenericCreate
 .text.xQueueCreateCountingSemaphoreStatic
                0x000052f8       0x40 ./gecko_sdk_4.4.4/util/third_party/freertos/kernel/queue.o
                0x000052f8                xQueueCreateCountingSemaphoreStatic
 .text.xQueueCreateCountingSemaphore
                0x00005338       0x34 ./gecko_sdk_4.4.4/util/third_party/freertos/kernel/queue.o
                0x00005338                xQueueCreateCountingSemaphore
 .text.xQueueGenericSend
                0x0000536c      0x15c ./gecko_sdk_4.4.4/util/third_party/freertos/kernel/queue.o
                0x0000536c                xQueueGenericSend
 .text.xQueueGiveMutexRecursive
                0x000054c8       0x3c ./gecko_sdk_4.4.4/util/third_party/freertos/kernel/queue.o
                0x000054c8                xQueueGiveMutexRecursive
 .text.xQueueGenericSendFromISR
                0x00005504       0xb8 ./gecko_sdk_4.4.4/util/third_party/freertos/kernel/queue.o
                0x00005504                xQueueGenericSendFromISR
 .text.xQueueGiveFromISR
                0x000055bc       0x9c ./gecko_sdk_4.4.4/util/third_party/freertos/kernel/queue.o
                0x000055bc                xQueueGiveFromISR
 .text.xQueueReceive
                0x00005658      0x12c ./gecko_sdk_4.4.4/util/third_party/freertos/kernel/queue.o
                0x00005658                xQueueReceive
 .text.xQueueSemaphoreTake
                0x00005784      0x15c ./gecko_sdk_4.4.4/util/third_party/freertos/kernel/queue.o
                0x00005784                xQueueSemaphoreTake
 .text.xQueueTakeMutexRecursive
                0x000058e0       0x40 ./gecko_sdk_4.4.4/util/third_party/freertos/kernel/queue.o
                0x000058e0                xQueueTakeMutexRecursive
 .text.xQueueReceiveFromISR
                0x00005920       0xa0 ./gecko_sdk_4.4.4/util/third_party/freertos/kernel/queue.o
                0x00005920                xQueueReceiveFromISR
 .text.vQueueAddToRegistry
                0x000059c0       0x24 ./gecko_sdk_4.4.4/util/third_party/freertos/kernel/queue.o
                0x000059c0                vQueueAddToRegistry
 .text.vQueueUnregisterQueue
                0x000059e4       0x30 ./gecko_sdk_4.4.4/util/third_party/freertos/kernel/queue.o
                0x000059e4                vQueueUnregisterQueue
 .text.vQueueDelete
                0x00005a14       0x2c ./gecko_sdk_4.4.4/util/third_party/freertos/kernel/queue.o
                0x00005a14                vQueueDelete
 .text.prvAddNewTaskToReadyList
                0x00005a40      0x100 ./gecko_sdk_4.4.4/util/third_party/freertos/kernel/tasks.o
 .text.prvAddCurrentTaskToDelayedList
                0x00005b40       0x70 ./gecko_sdk_4.4.4/util/third_party/freertos/kernel/tasks.o
 .text.prvResetNextTaskUnblockTime
                0x00005bb0       0x24 ./gecko_sdk_4.4.4/util/third_party/freertos/kernel/tasks.o
 .text.prvDeleteTCB
                0x00005bd4       0x38 ./gecko_sdk_4.4.4/util/third_party/freertos/kernel/tasks.o
 .text.prvIdleTask
                0x00005c0c       0x60 ./gecko_sdk_4.4.4/util/third_party/freertos/kernel/tasks.o
 .text.xTaskCreateStatic
                0x00005c6c       0x9c ./gecko_sdk_4.4.4/util/third_party/freertos/kernel/tasks.o
                0x00005c6c                xTaskCreateStatic
 .text.vTaskStartScheduler
                0x00005d08       0x8c ./gecko_sdk_4.4.4/util/third_party/freertos/kernel/tasks.o
                0x00005d08                vTaskStartScheduler
 .text.vTaskSuspendAll
                0x00005d94       0x10 ./gecko_sdk_4.4.4/util/third_party/freertos/kernel/tasks.o
                0x00005d94                vTaskSuspendAll
 .text.xTaskGetTickCount
                0x00005da4        0xc ./gecko_sdk_4.4.4/util/third_party/freertos/kernel/tasks.o
                0x00005da4                xTaskGetTickCount
 .text.xTaskIncrementTick
                0x00005db0      0x128 ./gecko_sdk_4.4.4/util/third_party/freertos/kernel/tasks.o
                0x00005db0                xTaskIncrementTick
 .text.xTaskResumeAll
                0x00005ed8       0xe4 ./gecko_sdk_4.4.4/util/third_party/freertos/kernel/tasks.o
                0x00005ed8                xTaskResumeAll
 .text.vTaskSwitchContext
                0x00005fbc       0xa4 ./gecko_sdk_4.4.4/util/third_party/freertos/kernel/tasks.o
                0x00005fbc                vTaskSwitchContext
 .text.vTaskPlaceOnEventList
                0x00006060       0x34 ./gecko_sdk_4.4.4/util/third_party/freertos/kernel/tasks.o
                0x00006060                vTaskPlaceOnEventList
 .text.vTaskPlaceOnEventListRestricted
                0x00006094       0x3c ./gecko_sdk_4.4.4/util/third_party/freertos/kernel/tasks.o
                0x00006094                vTaskPlaceOnEventListRestricted
 .text.xTaskRemoveFromEventList
                0x000060d0       0x7c ./gecko_sdk_4.4.4/util/third_party/freertos/kernel/tasks.o
                0x000060d0                xTaskRemoveFromEventList
 .text.vTaskInternalSetTimeOutState
                0x0000614c       0x18 ./gecko_sdk_4.4.4/util/third_party/freertos/kernel/tasks.o
                0x0000614c                vTaskInternalSetTimeOutState
 .text.xTaskCheckForTimeOut
                0x00006164       0x6c ./gecko_sdk_4.4.4/util/third_party/freertos/kernel/tasks.o
                0x00006164                xTaskCheckForTimeOut
 .text.vTaskMissedYield
                0x000061d0        0xc ./gecko_sdk_4.4.4/util/third_party/freertos/kernel/tasks.o
                0x000061d0                vTaskMissedYield
 .text.xTaskGetCurrentTaskHandle
                0x000061dc        0xc ./gecko_sdk_4.4.4/util/third_party/freertos/kernel/tasks.o
                0x000061dc                xTaskGetCurrentTaskHandle
 .text.xTaskGetSchedulerState
                0x000061e8       0x20 ./gecko_sdk_4.4.4/util/third_party/freertos/kernel/tasks.o
                0x000061e8                xTaskGetSchedulerState
 .text.xTaskPriorityInherit
                0x00006208       0x7c ./gecko_sdk_4.4.4/util/third_party/freertos/kernel/tasks.o
                0x00006208                xTaskPriorityInherit
 .text.xTaskPriorityDisinherit
                0x00006284       0x7c ./gecko_sdk_4.4.4/util/third_party/freertos/kernel/tasks.o
                0x00006284                xTaskPriorityDisinherit
 .text.vTaskPriorityDisinheritAfterTimeout
                0x00006300       0x94 ./gecko_sdk_4.4.4/util/third_party/freertos/kernel/tasks.o
                0x00006300                vTaskPriorityDisinheritAfterTimeout
 .text.pvTaskIncrementMutexHeldCount
                0x00006394       0x18 ./gecko_sdk_4.4.4/util/third_party/freertos/kernel/tasks.o
                0x00006394                pvTaskIncrementMutexHeldCount
 .text.prvInsertTimerInActiveList
                0x000063ac       0x3c ./gecko_sdk_4.4.4/util/third_party/freertos/kernel/timers.o
 .text.prvCheckForValidListAndQueue
                0x000063e8       0x68 ./gecko_sdk_4.4.4/util/third_party/freertos/kernel/timers.o
 .text.xTimerCreateTimerTask
                0x00006450       0x64 ./gecko_sdk_4.4.4/util/third_party/freertos/kernel/timers.o
                0x00006450                xTimerCreateTimerTask
 .text.xTimerGenericCommand
                0x000064b4       0x5c ./gecko_sdk_4.4.4/util/third_party/freertos/kernel/timers.o
                0x000064b4                xTimerGenericCommand
 .text.prvSampleTimeNow
                0x00006510       0xa0 ./gecko_sdk_4.4.4/util/third_party/freertos/kernel/timers.o
 .text.prvTimerTask
                0x000065b0      0x1cc ./gecko_sdk_4.4.4/util/third_party/freertos/kernel/timers.o
 .text.prvPortStartFirstTask
                0x0000677c       0x28 ./gecko_sdk_4.4.4/util/third_party/freertos/kernel/portable/GCC/ARM_CM4F/port.o
 .text.vPortEnableVFP
                0x000067a4       0x14 ./gecko_sdk_4.4.4/util/third_party/freertos/kernel/portable/GCC/ARM_CM4F/port.o
 .text.prvTaskExitError
                0x000067b8       0x3c ./gecko_sdk_4.4.4/util/third_party/freertos/kernel/portable/GCC/ARM_CM4F/port.o
 .text.pxPortInitialiseStack
                0x000067f4       0x2c ./gecko_sdk_4.4.4/util/third_party/freertos/kernel/portable/GCC/ARM_CM4F/port.o
                0x000067f4                pxPortInitialiseStack
 .text.vPortEnterCritical
                0x00006820       0x3c ./gecko_sdk_4.4.4/util/third_party/freertos/kernel/portable/GCC/ARM_CM4F/port.o
                0x00006820                vPortEnterCritical
 .text.vPortExitCritical
                0x0000685c       0x28 ./gecko_sdk_4.4.4/util/third_party/freertos/kernel/portable/GCC/ARM_CM4F/port.o
                0x0000685c                vPortExitCritical
 .text.vPortSetupTimerInterrupt
                0x00006884       0x24 ./gecko_sdk_4.4.4/util/third_party/freertos/kernel/portable/GCC/ARM_CM4F/port.o
                0x00006884                vPortSetupTimerInterrupt
 .text.xPortStartScheduler
                0x000068a8       0xfc ./gecko_sdk_4.4.4/util/third_party/freertos/kernel/portable/GCC/ARM_CM4F/port.o
                0x000068a8                xPortStartScheduler
 .text.vPortValidateInterruptPriority
                0x000069a4       0x54 ./gecko_sdk_4.4.4/util/third_party/freertos/kernel/portable/GCC/ARM_CM4F/port.o
                0x000069a4                vPortValidateInterruptPriority
 .text.prvInsertBlockIntoFreeList
                0x000069f8       0x50 ./gecko_sdk_4.4.4/util/third_party/freertos/kernel/portable/MemMang/heap_4.o
 .text.pvPortMalloc
                0x00006a48      0x13c ./gecko_sdk_4.4.4/util/third_party/freertos/kernel/portable/MemMang/heap_4.o
                0x00006a48                pvPortMalloc
 .text.vPortFree
                0x00006b84       0x80 ./gecko_sdk_4.4.4/util/third_party/freertos/kernel/portable/MemMang/heap_4.o
                0x00006b84                vPortFree
 .text.exit     0x00006c04       0x24 e:/siliconlabs/simplicitystudio/v5/developer/toolchains/gnu_arm/12.2.rel1_2023.7/bin/../lib/gcc/arm-none-eabi/12.2.1/thumb/v7e-m+fp/softfp\libc_nano.a(libc_a-exit.o)
                0x00006c04                exit
 .text.malloc   0x00006c28       0x10 e:/siliconlabs/simplicitystudio/v5/developer/toolchains/gnu_arm/12.2.rel1_2023.7/bin/../lib/gcc/arm-none-eabi/12.2.1/thumb/v7e-m+fp/softfp\libc_nano.a(libc_a-malloc.o)
                0x00006c28                malloc
 .text.sbrk_aligned
                0x00006c38       0x44 e:/siliconlabs/simplicitystudio/v5/developer/toolchains/gnu_arm/12.2.rel1_2023.7/bin/../lib/gcc/arm-none-eabi/12.2.1/thumb/v7e-m+fp/softfp\libc_nano.a(libc_a-mallocr.o)
 .text._malloc_r
                0x00006c7c       0xf0 e:/siliconlabs/simplicitystudio/v5/developer/toolchains/gnu_arm/12.2.rel1_2023.7/bin/../lib/gcc/arm-none-eabi/12.2.1/thumb/v7e-m+fp/softfp\libc_nano.a(libc_a-mallocr.o)
                0x00006c7c                _malloc_r
 .text.__malloc_lock
                0x00006d6c        0xc e:/siliconlabs/simplicitystudio/v5/developer/toolchains/gnu_arm/12.2.rel1_2023.7/bin/../lib/gcc/arm-none-eabi/12.2.1/thumb/v7e-m+fp/softfp\libc_nano.a(libc_a-mlock.o)
                0x00006d6c                __malloc_lock
 .text.__malloc_unlock
                0x00006d78        0xc e:/siliconlabs/simplicitystudio/v5/developer/toolchains/gnu_arm/12.2.rel1_2023.7/bin/../lib/gcc/arm-none-eabi/12.2.1/thumb/v7e-m+fp/softfp\libc_nano.a(libc_a-mlock.o)
                0x00006d78                __malloc_unlock
 .text.std      0x00006d84       0x6c e:/siliconlabs/simplicitystudio/v5/developer/toolchains/gnu_arm/12.2.rel1_2023.7/bin/../lib/gcc/arm-none-eabi/12.2.1/thumb/v7e-m+fp/softfp\libc_nano.a(libc_a-findfp.o)
 .text.stdio_exit_handler
                0x00006df0       0x18 e:/siliconlabs/simplicitystudio/v5/developer/toolchains/gnu_arm/12.2.rel1_2023.7/bin/../lib/gcc/arm-none-eabi/12.2.1/thumb/v7e-m+fp/softfp\libc_nano.a(libc_a-findfp.o)
 .text.cleanup_stdio
                0x00006e08       0x40 e:/siliconlabs/simplicitystudio/v5/developer/toolchains/gnu_arm/12.2.rel1_2023.7/bin/../lib/gcc/arm-none-eabi/12.2.1/thumb/v7e-m+fp/softfp\libc_nano.a(libc_a-findfp.o)
 .text.global_stdio_init.part.0
                0x00006e48       0x3c e:/siliconlabs/simplicitystudio/v5/developer/toolchains/gnu_arm/12.2.rel1_2023.7/bin/../lib/gcc/arm-none-eabi/12.2.1/thumb/v7e-m+fp/softfp\libc_nano.a(libc_a-findfp.o)
 .text.__sfp_lock_acquire
                0x00006e84        0xc e:/siliconlabs/simplicitystudio/v5/developer/toolchains/gnu_arm/12.2.rel1_2023.7/bin/../lib/gcc/arm-none-eabi/12.2.1/thumb/v7e-m+fp/softfp\libc_nano.a(libc_a-findfp.o)
                0x00006e84                __sfp_lock_acquire
 .text.__sfp_lock_release
                0x00006e90        0xc e:/siliconlabs/simplicitystudio/v5/developer/toolchains/gnu_arm/12.2.rel1_2023.7/bin/../lib/gcc/arm-none-eabi/12.2.1/thumb/v7e-m+fp/softfp\libc_nano.a(libc_a-findfp.o)
                0x00006e90                __sfp_lock_release
 .text.__sinit  0x00006e9c       0x30 e:/siliconlabs/simplicitystudio/v5/developer/toolchains/gnu_arm/12.2.rel1_2023.7/bin/../lib/gcc/arm-none-eabi/12.2.1/thumb/v7e-m+fp/softfp\libc_nano.a(libc_a-findfp.o)
                0x00006e9c                __sinit
 .text.strtok   0x00006ecc       0x68 e:/siliconlabs/simplicitystudio/v5/developer/toolchains/gnu_arm/12.2.rel1_2023.7/bin/../lib/gcc/arm-none-eabi/12.2.1/thumb/v7e-m+fp/softfp\libc_nano.a(libc_a-strtok.o)
                0x00006ecc                strtok
 .text._close_r
                0x00006f34       0x20 e:/siliconlabs/simplicitystudio/v5/developer/toolchains/gnu_arm/12.2.rel1_2023.7/bin/../lib/gcc/arm-none-eabi/12.2.1/thumb/v7e-m+fp/softfp\libc_nano.a(libc_a-closer.o)
                0x00006f34                _close_r
 .text._lseek_r
                0x00006f54       0x24 e:/siliconlabs/simplicitystudio/v5/developer/toolchains/gnu_arm/12.2.rel1_2023.7/bin/../lib/gcc/arm-none-eabi/12.2.1/thumb/v7e-m+fp/softfp\libc_nano.a(libc_a-lseekr.o)
                0x00006f54                _lseek_r
 .text._read_r  0x00006f78       0x24 e:/siliconlabs/simplicitystudio/v5/developer/toolchains/gnu_arm/12.2.rel1_2023.7/bin/../lib/gcc/arm-none-eabi/12.2.1/thumb/v7e-m+fp/softfp\libc_nano.a(libc_a-readr.o)
                0x00006f78                _read_r
 .text._sbrk_r  0x00006f9c       0x20 e:/siliconlabs/simplicitystudio/v5/developer/toolchains/gnu_arm/12.2.rel1_2023.7/bin/../lib/gcc/arm-none-eabi/12.2.1/thumb/v7e-m+fp/softfp\libc_nano.a(libc_a-sbrkr.o)
                0x00006f9c                _sbrk_r
 .text._write_r
                0x00006fbc       0x24 e:/siliconlabs/simplicitystudio/v5/developer/toolchains/gnu_arm/12.2.rel1_2023.7/bin/../lib/gcc/arm-none-eabi/12.2.1/thumb/v7e-m+fp/softfp\libc_nano.a(libc_a-writer.o)
                0x00006fbc                _write_r
 .text.__libc_init_array
                0x00006fe0       0x48 e:/siliconlabs/simplicitystudio/v5/developer/toolchains/gnu_arm/12.2.rel1_2023.7/bin/../lib/gcc/arm-none-eabi/12.2.1/thumb/v7e-m+fp/softfp\libc_nano.a(libc_a-init.o)
                0x00006fe0                __libc_init_array
 .text.__assert_func
                0x00007028       0x3c e:/siliconlabs/simplicitystudio/v5/developer/toolchains/gnu_arm/12.2.rel1_2023.7/bin/../lib/gcc/arm-none-eabi/12.2.1/thumb/v7e-m+fp/softfp\libc_nano.a(libc_a-assert.o)
                0x00007028                __assert_func
 .text._free_r  0x00007064       0x94 e:/siliconlabs/simplicitystudio/v5/developer/toolchains/gnu_arm/12.2.rel1_2023.7/bin/../lib/gcc/arm-none-eabi/12.2.1/thumb/v7e-m+fp/softfp\libc_nano.a(libc_a-freer.o)
                0x00007064                _free_r
 .text.fprintf  0x000070f8       0x24 e:/siliconlabs/simplicitystudio/v5/developer/toolchains/gnu_arm/12.2.rel1_2023.7/bin/../lib/gcc/arm-none-eabi/12.2.1/thumb/v7e-m+fp/softfp\libc_nano.a(libc_a-fprintf.o)
                0x000070f8                fiprintf
                0x000070f8                fprintf
 .text._vfprintf_r
                0x0000711c      0x230 e:/siliconlabs/simplicitystudio/v5/developer/toolchains/gnu_arm/12.2.rel1_2023.7/bin/../lib/gcc/arm-none-eabi/12.2.1/thumb/v7e-m+fp/softfp\libc_nano.a(libc_a-nano-vfprintf.o)
                0x0000711c                _vfprintf_r
                0x0000711c                _vfiprintf_r
 .text._printf_i
                0x0000734c      0x258 e:/siliconlabs/simplicitystudio/v5/developer/toolchains/gnu_arm/12.2.rel1_2023.7/bin/../lib/gcc/arm-none-eabi/12.2.1/thumb/v7e-m+fp/softfp\libc_nano.a(libc_a-nano-vfprintf_i.o)
                0x0000734c                _printf_i
 .text.__swsetup_r
                0x000075a4       0xac e:/siliconlabs/simplicitystudio/v5/developer/toolchains/gnu_arm/12.2.rel1_2023.7/bin/../lib/gcc/arm-none-eabi/12.2.1/thumb/v7e-m+fp/softfp\libc_nano.a(libc_a-wsetup.o)
                0x000075a4                __swsetup_r
 .text.raise    0x00007650       0x10 e:/siliconlabs/simplicitystudio/v5/developer/toolchains/gnu_arm/12.2.rel1_2023.7/bin/../lib/gcc/arm-none-eabi/12.2.1/thumb/v7e-m+fp/softfp\libc_nano.a(libc_a-signal.o)
                0x00007650                raise
 .text._kill_r  0x00007660       0x24 e:/siliconlabs/simplicitystudio/v5/developer/toolchains/gnu_arm/12.2.rel1_2023.7/bin/../lib/gcc/arm-none-eabi/12.2.1/thumb/v7e-m+fp/softfp\libc_nano.a(libc_a-signalr.o)
                0x00007660                _kill_r
 .text._fstat_r
                0x00007684       0x24 e:/siliconlabs/simplicitystudio/v5/developer/toolchains/gnu_arm/12.2.rel1_2023.7/bin/../lib/gcc/arm-none-eabi/12.2.1/thumb/v7e-m+fp/softfp\libc_nano.a(libc_a-fstatr.o)
                0x00007684                _fstat_r
 .text._isatty_r
                0x000076a8       0x20 e:/siliconlabs/simplicitystudio/v5/developer/toolchains/gnu_arm/12.2.rel1_2023.7/bin/../lib/gcc/arm-none-eabi/12.2.1/thumb/v7e-m+fp/softfp\libc_nano.a(libc_a-isattyr.o)
                0x000076a8                _isatty_r
 .text.app_init
                0x000076c8        0x2 ./app.o
                0x000076c8                app_init
 .text.startup.main
                0x000076ca       0x12 ./main.o
                0x000076ca                main
 .text.sl_usbd_on_bus_event
                0x000076dc        0x2 ./usb_composite_app.o
                0x000076dc                sl_usbd_on_bus_event
 .text.sl_usbd_on_config_event
                0x000076de        0x2 ./usb_composite_app.o
                0x000076de                sl_usbd_on_config_event
 .text.sl_board_default_init
                0x000076e0        0x2 ./autogen/sl_board_default_init.o
                0x000076e0                sl_board_default_init
 .text.sl_kernel_start
                0x000076e2        0x4 ./autogen/sl_event_handler.o
                0x000076e2                sl_kernel_start
 .text.sl_driver_init
                0x000076e6        0x4 ./autogen/sl_event_handler.o
                0x000076e6                sl_driver_init
 .text.sl_service_init
                0x000076ea        0x2 ./autogen/sl_event_handler.o
                0x000076ea                sl_service_init
 .text.sl_stack_init
                0x000076ec        0xe ./autogen/sl_event_handler.o
                0x000076ec                sl_stack_init
 .text.sl_internal_app_init
                0x000076fa        0x2 ./autogen/sl_event_handler.o
                0x000076fa                sl_internal_app_init
 .text.sli_usbd_vendor_winusb_enable
                0x000076fc        0x8 ./autogen/sl_usbd_class_vendor_instances.o
                0x000076fc                sli_usbd_vendor_winusb_enable
 .text.sli_usbd_vendor_winusb_disable
                0x00007704        0x8 ./autogen/sl_usbd_class_vendor_instances.o
                0x00007704                sli_usbd_vendor_winusb_disable
 .text.sli_usbd_vendor_winusb_setup_req
                0x0000770c        0xa ./autogen/sl_usbd_class_vendor_instances.o
                0x0000770c                sli_usbd_vendor_winusb_setup_req
 .text.sli_usbd_init
                0x00007716        0xe ./autogen/sl_usbd_init.o
                0x00007716                sli_usbd_init
 .text.Default_Handler
                0x00007724        0x2 ./gecko_sdk_4.4.4/platform/Device/SiliconLabs/EFM32GG11B/Source/startup_efm32gg11b.o
                0x00007724                TIMER2_IRQHandler
                0x00007724                DebugMon_Handler
                0x00007724                TIMER5_IRQHandler
                0x00007724                USART0_TX_IRQHandler
                0x00007724                USART5_RX_IRQHandler
                0x00007724                I2C0_IRQHandler
                0x00007724                HardFault_Handler
                0x00007724                LEUART1_IRQHandler
                0x00007724                SDIO_IRQHandler
                0x00007724                USART1_RX_IRQHandler
                0x00007724                NMI_Handler
                0x00007724                I2C1_IRQHandler
                0x00007724                CAN1_IRQHandler
                0x00007724                WTIMER0_IRQHandler
                0x00007724                WTIMER3_IRQHandler
                0x00007724                CRYPTO0_IRQHandler
                0x00007724                WDOG0_IRQHandler
                0x00007724                TIMER3_IRQHandler
                0x00007724                USART1_TX_IRQHandler
                0x00007724                USART4_RX_IRQHandler
                0x00007724                SMU_IRQHandler
                0x00007724                MSC_IRQHandler
                0x00007724                ADC0_IRQHandler
                0x00007724                UsageFault_Handler
                0x00007724                WDOG1_IRQHandler
                0x00007724                LEUART0_IRQHandler
                0x00007724                TIMER4_IRQHandler
                0x00007724                FPUEH_IRQHandler
                0x00007724                WTIMER1_IRQHandler
                0x00007724                GPIO_EVEN_IRQHandler
                0x00007724                UART0_TX_IRQHandler
                0x00007724                UART1_TX_IRQHandler
                0x00007724                VDAC0_IRQHandler
                0x00007724                LDMA_IRQHandler
                0x00007724                QSPI0_IRQHandler
                0x00007724                TIMER6_IRQHandler
                0x00007724                CSEN_IRQHandler
                0x00007724                ADC1_IRQHandler
                0x00007724                I2C2_IRQHandler
                0x00007724                RTC_IRQHandler
                0x00007724                TIMER0_IRQHandler
                0x00007724                LCD_IRQHandler
                0x00007724                PCNT2_IRQHandler
                0x00007724                UART0_RX_IRQHandler
                0x00007724                LETIMER0_IRQHandler
                0x00007724                WTIMER2_IRQHandler
                0x00007724                TIMER1_IRQHandler
                0x00007724                TRNG0_IRQHandler
                0x00007724                USART2_RX_IRQHandler
                0x00007724                Default_Handler
                0x00007724                EMU_IRQHandler
                0x00007724                CRYOTIMER_IRQHandler
                0x00007724                PCNT0_IRQHandler
                0x00007724                sl_app_properties
                0x00007724                USART4_TX_IRQHandler
                0x00007724                PCNT1_IRQHandler
                0x00007724                ACMP0_IRQHandler
                0x00007724                USART0_RX_IRQHandler
                0x00007724                USART5_TX_IRQHandler
                0x00007724                MemManage_Handler
                0x00007724                USART3_RX_IRQHandler
                0x00007724                RTCC_IRQHandler
                0x00007724                UART1_RX_IRQHandler
                0x00007724                ETH_IRQHandler
                0x00007724                CMU_IRQHandler
                0x00007724                EBI_IRQHandler
                0x00007724                CAN0_IRQHandler
                0x00007724                GPIO_ODD_IRQHandler
                0x00007724                LESENSE_IRQHandler
                0x00007724                USART3_TX_IRQHandler
                0x00007724                LETIMER1_IRQHandler
                0x00007724                ACMP2_IRQHandler
                0x00007724                BusFault_Handler
                0x00007724                USART2_TX_IRQHandler
                0x00007724                IDAC0_IRQHandler
 .text.SystemLFRCOClockGet
                0x00007726        0x6 ./gecko_sdk_4.4.4/platform/Device/SiliconLabs/EFM32GG11B/Source/system_efm32gg11b.o
                0x00007726                SystemLFRCOClockGet
 .text.SystemULFRCOClockGet
                0x0000772c        0x6 ./gecko_sdk_4.4.4/platform/Device/SiliconLabs/EFM32GG11B/Source/system_efm32gg11b.o
                0x0000772c                SystemULFRCOClockGet
 .text.assertEFM
                0x00007732        0x2 ./gecko_sdk_4.4.4/platform/common/src/sl_assert.o
                0x00007732                assertEFM
 .text.sl_strnlen
                0x00007734       0x16 ./gecko_sdk_4.4.4/platform/common/src/sl_string.o
                0x00007734                sl_strnlen
 .text.sl_strlen
                0x0000774a        0x8 ./gecko_sdk_4.4.4/platform/common/src/sl_string.o
                0x0000774a                sl_strlen
 .text._close   0x00007752        0x6 ./gecko_sdk_4.4.4/platform/common/src/sl_syscalls.o
                0x00007752                _close
 .text._exit    0x00007758        0x2 ./gecko_sdk_4.4.4/platform/common/src/sl_syscalls.o
                0x00007758                _exit
 .text._fstat   0x0000775a        0x4 ./gecko_sdk_4.4.4/platform/common/src/sl_syscalls.o
                0x0000775a                _fstat
 .text._getpid  0x0000775e        0x4 ./gecko_sdk_4.4.4/platform/common/src/sl_syscalls.o
                0x0000775e                _getpid
 .text._isatty  0x00007762        0x4 ./gecko_sdk_4.4.4/platform/common/src/sl_syscalls.o
                0x00007762                _isatty
 .text._kill    0x00007766        0x6 ./gecko_sdk_4.4.4/platform/common/src/sl_syscalls.o
                0x00007766                _kill
 .text._lseek   0x0000776c        0x4 ./gecko_sdk_4.4.4/platform/common/src/sl_syscalls.o
                0x0000776c                _lseek
 .text._read    0x00007770        0x4 ./gecko_sdk_4.4.4/platform/common/src/sl_syscalls.o
                0x00007770                _read
 .text._write   0x00007774        0x4 ./gecko_sdk_4.4.4/platform/common/src/sl_syscalls.o
                0x00007774                _write
 .text.flashWaitStateMax
                0x00007778       0x22 ./gecko_sdk_4.4.4/platform/emlib/src/em_cmu.o
 .text.CMU_ClockDivGet
                0x0000779a        0xa ./gecko_sdk_4.4.4/platform/emlib/src/em_cmu.o
                0x0000779a                CMU_ClockDivGet
 .text.CORE_EnterAtomic
                0x000077a4        0xc ./gecko_sdk_4.4.4/platform/emlib/src/em_core.o
                0x000077a4                CORE_EnterAtomic
 .text.CORE_ExitAtomic
                0x000077b0        0x6 ./gecko_sdk_4.4.4/platform/emlib/src/em_core.o
                0x000077b0                CORE_ExitAtomic
 .text.sl_device_init_emu
                0x000077b6       0x1c ./gecko_sdk_4.4.4/platform/service/device_init/src/sl_device_init_emu_s1.o
                0x000077b6                sl_device_init_emu
 .text.sl_system_init
                0x000077d2       0x1a ./gecko_sdk_4.4.4/platform/service/system/src/sl_system_init.o
                0x000077d2                sl_system_init
 .text.sl_system_kernel_start
                0x000077ec        0x4 ./gecko_sdk_4.4.4/platform/service/system/src/sl_system_kernel.o
                0x000077ec                sl_system_kernel_start
 .text.usbd_vendor_request_handler
                0x000077f0       0x1a ./gecko_sdk_4.4.4/protocol/usb/src/sl_usbd_class_vendor.o
 .text.usbd_vendor_get_microsoft_compat_id
                0x0000780a        0x8 ./gecko_sdk_4.4.4/protocol/usb/src/sl_usbd_class_vendor.o
 .text.usbd_vendor_disable
                0x00007812       0x26 ./gecko_sdk_4.4.4/protocol/usb/src/sl_usbd_class_vendor.o
 .text.usbd_vendor_enable
                0x00007838       0x26 ./gecko_sdk_4.4.4/protocol/usb/src/sl_usbd_class_vendor.o
 .text.usbd_core_get_configuration_structure
                0x0000785e       0x1e ./gecko_sdk_4.4.4/protocol/usb/src/sl_usbd_core.o
 .text.usbd_core_get_interface_structure
                0x0000787c       0x1c ./gecko_sdk_4.4.4/protocol/usb/src/sl_usbd_core.o
 .text.usbd_core_vendor_stdreq
                0x00007898       0x44 ./gecko_sdk_4.4.4/protocol/usb/src/sl_usbd_core.o
 .text.usbd_core_get_alt_interface_structure
                0x000078dc       0x1c ./gecko_sdk_4.4.4/protocol/usb/src/sl_usbd_core.o
 .text.usbd_core_start_descriptor_write
                0x000078f8       0x1a ./gecko_sdk_4.4.4/protocol/usb/src/sl_usbd_core.o
 .text.usbd_core_close_alt_interface
                0x00007912       0x48 ./gecko_sdk_4.4.4/protocol/usb/src/sl_usbd_core.o
 .text.usbd_core_unset_configuration
                0x0000795a       0xa2 ./gecko_sdk_4.4.4/protocol/usb/src/sl_usbd_core.o
 .text.usbd_core_write_08b_to_descriptor_buf
                0x000079fc       0x1c ./gecko_sdk_4.4.4/protocol/usb/src/sl_usbd_core.o
 .text.usbd_core_set_event
                0x00007a18       0x16 ./gecko_sdk_4.4.4/protocol/usb/src/sl_usbd_core.o
 .text.usbd_core_open_alt_interface
                0x00007a2e       0x5e ./gecko_sdk_4.4.4/protocol/usb/src/sl_usbd_core.o
 .text.usbd_core_set_configuration
                0x00007a8c       0x84 ./gecko_sdk_4.4.4/protocol/usb/src/sl_usbd_core.o
 .text.usbd_core_get_string_index
                0x00007b10       0x28 ./gecko_sdk_4.4.4/protocol/usb/src/sl_usbd_core.o
 .text.usbd_core_write_16b_to_descriptor_buf
                0x00007b38       0x1a ./gecko_sdk_4.4.4/protocol/usb/src/sl_usbd_core.o
 .text.usbd_core_send_device_descriptor.constprop.0
                0x00007b52       0xda ./gecko_sdk_4.4.4/protocol/usb/src/sl_usbd_core.o
 .text.usbd_core_allocate_endpoint.constprop.0.isra.0
                0x00007c2c       0xf4 ./gecko_sdk_4.4.4/protocol/usb/src/sl_usbd_core.o
 .text.usbd_core_send_configuration_descriptor.constprop.0
                0x00007d20      0x35e ./gecko_sdk_4.4.4/protocol/usb/src/sl_usbd_core.o
 .text.usbd_core_microsoft_ext_property_stdreq
                0x0000807e       0xfe ./gecko_sdk_4.4.4/protocol/usb/src/sl_usbd_core.o
 .text.sl_usbd_core_add_interrupt_endpoint
                0x0000817c       0x3a ./gecko_sdk_4.4.4/protocol/usb/src/sl_usbd_core.o
                0x0000817c                sl_usbd_core_add_interrupt_endpoint
 .text.sli_usbd_core_connect_event
                0x000081b6        0xc ./gecko_sdk_4.4.4/protocol/usb/src/sl_usbd_core.o
                0x000081b6                sli_usbd_core_connect_event
 .text.sli_usbd_core_disconnect_event
                0x000081c2        0xc ./gecko_sdk_4.4.4/protocol/usb/src/sl_usbd_core.o
                0x000081c2                sli_usbd_core_disconnect_event
 .text.sli_usbd_core_reset_event
                0x000081ce        0xc ./gecko_sdk_4.4.4/protocol/usb/src/sl_usbd_core.o
                0x000081ce                sli_usbd_core_reset_event
 .text.sli_usbd_core_suspend_event
                0x000081da        0xc ./gecko_sdk_4.4.4/protocol/usb/src/sl_usbd_core.o
                0x000081da                sli_usbd_core_suspend_event
 .text.sli_usbd_core_resume_event
                0x000081e6        0xc ./gecko_sdk_4.4.4/protocol/usb/src/sl_usbd_core.o
                0x000081e6                sli_usbd_core_resume_event
 .text.sli_usbd_core_endpoint_event
                0x000081f2       0x1c ./gecko_sdk_4.4.4/protocol/usb/src/sl_usbd_core.o
                0x000081f2                sli_usbd_core_endpoint_event
 .text.usbd_core_queue_urb
                0x0000820e       0x12 ./gecko_sdk_4.4.4/protocol/usb/src/sl_usbd_core_ep.o
 .text.usbd_core_dequeue_urb
                0x00008220       0x12 ./gecko_sdk_4.4.4/protocol/usb/src/sl_usbd_core_ep.o
 .text.usbd_core_complete_async_urb
                0x00008232       0x14 ./gecko_sdk_4.4.4/protocol/usb/src/sl_usbd_core_ep.o
 .text.usbd_core_abort_urb
                0x00008246       0x5c ./gecko_sdk_4.4.4/protocol/usb/src/sl_usbd_core_ep.o
 .text.usbd_core_endpoint_process_async_tx
                0x000082a2       0x4c ./gecko_sdk_4.4.4/protocol/usb/src/sl_usbd_core_ep.o
 .text.usbd_core_endpoint_write
                0x000082ee      0x1b2 ./gecko_sdk_4.4.4/protocol/usb/src/sl_usbd_core_ep.o
 .text.usbd_core_end_async_urb
                0x000084a0       0x36 ./gecko_sdk_4.4.4/protocol/usb/src/sl_usbd_core_ep.o
 .text.usbd_core_endpoint_process_async_rx
                0x000084d6       0x30 ./gecko_sdk_4.4.4/protocol/usb/src/sl_usbd_core_ep.o
 .text.sli_usbd_core_open_control_endpoint
                0x00008506       0x2c ./gecko_sdk_4.4.4/protocol/usb/src/sl_usbd_core_ep.o
                0x00008506                sli_usbd_core_open_control_endpoint
 .text.sli_usbd_core_close_control_endpoint
                0x00008532       0x18 ./gecko_sdk_4.4.4/protocol/usb/src/sl_usbd_core_ep.o
                0x00008532                sli_usbd_core_close_control_endpoint
 .text.sli_usbd_core_get_control_tx_status
                0x0000854a       0x28 ./gecko_sdk_4.4.4/protocol/usb/src/sl_usbd_core_ep.o
                0x0000854a                sli_usbd_core_get_control_tx_status
 .text.sli_usbd_core_get_control_rx_status
                0x00008572       0x2c ./gecko_sdk_4.4.4/protocol/usb/src/sl_usbd_core_ep.o
                0x00008572                sli_usbd_core_get_control_rx_status
 .text.usbd_core_os_task_main
                0x0000859e        0x8 ./gecko_sdk_4.4.4/protocol/usb/src/sl_usbd_core_os.o
 .text.sli_usbd_core_os_post_endpoint_signal
                0x000085a6        0x4 ./gecko_sdk_4.4.4/protocol/usb/src/sl_usbd_core_os.o
                0x000085a6                sli_usbd_core_os_post_endpoint_signal
 .text.sli_usbd_driver_get_speed
                0x000085aa        0xe ./gecko_sdk_4.4.4/protocol/usb/src/sl_usbd_driver_dwc_otg_fs.o
                0x000085aa                sli_usbd_driver_get_speed
 .text.sli_usbd_driver_endpoint_rx_zlp
                0x000085b8        0x4 ./gecko_sdk_4.4.4/protocol/usb/src/sl_usbd_driver_dwc_otg_fs.o
                0x000085b8                sli_usbd_driver_endpoint_rx_zlp
 .text.sli_usbd_driver_endpoint_tx_zlp
                0x000085bc        0x8 ./gecko_sdk_4.4.4/protocol/usb/src/sl_usbd_driver_dwc_otg_fs.o
                0x000085bc                sli_usbd_driver_endpoint_tx_zlp
 .text.SysTick_Handler
                0x000085c4       0x1a ./gecko_sdk_4.4.4/util/third_party/freertos/cmsis/Source/cmsis_os2.o
                0x000085c4                SysTick_Handler
 .text.osKernelGetTickFreq
                0x000085de        0x6 ./gecko_sdk_4.4.4/util/third_party/freertos/cmsis/Source/cmsis_os2.o
                0x000085de                osKernelGetTickFreq
 .text.vListInitialise
                0x000085e4       0x16 ./gecko_sdk_4.4.4/util/third_party/freertos/kernel/list.o
                0x000085e4                vListInitialise
 .text.vListInitialiseItem
                0x000085fa        0x6 ./gecko_sdk_4.4.4/util/third_party/freertos/kernel/list.o
                0x000085fa                vListInitialiseItem
 .text.vListInsertEnd
                0x00008600       0x16 ./gecko_sdk_4.4.4/util/third_party/freertos/kernel/list.o
                0x00008600                vListInsertEnd
 .text.vListInsert
                0x00008616       0x2e ./gecko_sdk_4.4.4/util/third_party/freertos/kernel/list.o
                0x00008616                vListInsert
 .text.uxListRemove
                0x00008644       0x20 ./gecko_sdk_4.4.4/util/third_party/freertos/kernel/list.o
                0x00008644                uxListRemove
 .text.prvIsQueueEmpty
                0x00008664       0x16 ./gecko_sdk_4.4.4/util/third_party/freertos/kernel/queue.o
 .text.prvCopyDataToQueue
                0x0000867a       0x66 ./gecko_sdk_4.4.4/util/third_party/freertos/kernel/queue.o
 .text.prvCopyDataFromQueue
                0x000086e0       0x2c ./gecko_sdk_4.4.4/util/third_party/freertos/kernel/queue.o
 .text.prvUnlockQueue
                0x0000870c       0x70 ./gecko_sdk_4.4.4/util/third_party/freertos/kernel/queue.o
 .text.xQueueCreateMutexStatic
                0x0000877c       0x2a ./gecko_sdk_4.4.4/util/third_party/freertos/kernel/queue.o
                0x0000877c                xQueueCreateMutexStatic
 .text.xQueueCreateMutex
                0x000087a6       0x24 ./gecko_sdk_4.4.4/util/third_party/freertos/kernel/queue.o
                0x000087a6                xQueueCreateMutex
 .text.vQueueWaitForMessageRestricted
                0x000087ca       0x46 ./gecko_sdk_4.4.4/util/third_party/freertos/kernel/queue.o
                0x000087ca                vQueueWaitForMessageRestricted
 .text.prvInitialiseNewTask.constprop.0
                0x00008810       0x96 ./gecko_sdk_4.4.4/util/third_party/freertos/kernel/tasks.o
 .text.xTaskCreate
                0x000088a6       0x5c ./gecko_sdk_4.4.4/util/third_party/freertos/kernel/tasks.o
                0x000088a6                xTaskCreate
 .text.xPortSysTickHandler
                0x00008902       0x2c ./gecko_sdk_4.4.4/util/third_party/freertos/kernel/portable/GCC/ARM_CM4F/port.o
                0x00008902                xPortSysTickHandler
 .text._fwalk_sglue
                0x0000892e       0x3c e:/siliconlabs/simplicitystudio/v5/developer/toolchains/gnu_arm/12.2.rel1_2023.7/bin/../lib/gcc/arm-none-eabi/12.2.1/thumb/v7e-m+fp/softfp\libc_nano.a(libc_a-fwalk.o)
                0x0000892e                _fwalk_sglue
 .text.__sread  0x0000896a       0x22 e:/siliconlabs/simplicitystudio/v5/developer/toolchains/gnu_arm/12.2.rel1_2023.7/bin/../lib/gcc/arm-none-eabi/12.2.1/thumb/v7e-m+fp/softfp\libc_nano.a(libc_a-stdio.o)
                0x0000896a                __sread
 .text.__swrite
                0x0000898c       0x38 e:/siliconlabs/simplicitystudio/v5/developer/toolchains/gnu_arm/12.2.rel1_2023.7/bin/../lib/gcc/arm-none-eabi/12.2.1/thumb/v7e-m+fp/softfp\libc_nano.a(libc_a-stdio.o)
                0x0000898c                __swrite
 .text.__sseek  0x000089c4       0x24 e:/siliconlabs/simplicitystudio/v5/developer/toolchains/gnu_arm/12.2.rel1_2023.7/bin/../lib/gcc/arm-none-eabi/12.2.1/thumb/v7e-m+fp/softfp\libc_nano.a(libc_a-stdio.o)
                0x000089c4                __sseek
 .text.__sclose
                0x000089e8        0x8 e:/siliconlabs/simplicitystudio/v5/developer/toolchains/gnu_arm/12.2.rel1_2023.7/bin/../lib/gcc/arm-none-eabi/12.2.1/thumb/v7e-m+fp/softfp\libc_nano.a(libc_a-stdio.o)
                0x000089e8                __sclose
 .text.memset   0x000089f0       0x10 e:/siliconlabs/simplicitystudio/v5/developer/toolchains/gnu_arm/12.2.rel1_2023.7/bin/../lib/gcc/arm-none-eabi/12.2.1/thumb/v7e-m+fp/softfp\libc_nano.a(libc_a-memset.o)
                0x000089f0                memset
 .text.__strtok_r
                0x00008a00       0x50 e:/siliconlabs/simplicitystudio/v5/developer/toolchains/gnu_arm/12.2.rel1_2023.7/bin/../lib/gcc/arm-none-eabi/12.2.1/thumb/v7e-m+fp/softfp\libc_nano.a(libc_a-strtok_r.o)
                0x00008a00                __strtok_r
 .text.__retarget_lock_init_recursive
                0x00008a50        0x2 e:/siliconlabs/simplicitystudio/v5/developer/toolchains/gnu_arm/12.2.rel1_2023.7/bin/../lib/gcc/arm-none-eabi/12.2.1/thumb/v7e-m+fp/softfp\libc_nano.a(libc_a-lock.o)
                0x00008a50                __retarget_lock_init_recursive
 .text.__retarget_lock_acquire_recursive
                0x00008a52        0x2 e:/siliconlabs/simplicitystudio/v5/developer/toolchains/gnu_arm/12.2.rel1_2023.7/bin/../lib/gcc/arm-none-eabi/12.2.1/thumb/v7e-m+fp/softfp\libc_nano.a(libc_a-lock.o)
                0x00008a52                __retarget_lock_acquire_recursive
 .text.__retarget_lock_release_recursive
                0x00008a54        0x2 e:/siliconlabs/simplicitystudio/v5/developer/toolchains/gnu_arm/12.2.rel1_2023.7/bin/../lib/gcc/arm-none-eabi/12.2.1/thumb/v7e-m+fp/softfp\libc_nano.a(libc_a-lock.o)
                0x00008a54                __retarget_lock_release_recursive
 .text          0x00008a56       0x14 e:/siliconlabs/simplicitystudio/v5/developer/toolchains/gnu_arm/12.2.rel1_2023.7/bin/../lib/gcc/arm-none-eabi/12.2.1/thumb/v7e-m+fp/softfp\libc_nano.a(libc_a-strcmp.o)
                0x00008a56                strcmp
 .text.memcpy   0x00008a6a       0x1c e:/siliconlabs/simplicitystudio/v5/developer/toolchains/gnu_arm/12.2.rel1_2023.7/bin/../lib/gcc/arm-none-eabi/12.2.1/thumb/v7e-m+fp/softfp\libc_nano.a(libc_a-memcpy-stub.o)
                0x00008a6a                memcpy
 .text.__sflush_r
                0x00008a86      0x108 e:/siliconlabs/simplicitystudio/v5/developer/toolchains/gnu_arm/12.2.rel1_2023.7/bin/../lib/gcc/arm-none-eabi/12.2.1/thumb/v7e-m+fp/softfp\libc_nano.a(libc_a-fflush.o)
                0x00008a86                __sflush_r
 .text._fflush_r
                0x00008b8e       0x50 e:/siliconlabs/simplicitystudio/v5/developer/toolchains/gnu_arm/12.2.rel1_2023.7/bin/../lib/gcc/arm-none-eabi/12.2.1/thumb/v7e-m+fp/softfp\libc_nano.a(libc_a-fflush.o)
                0x00008b8e                _fflush_r
 .text.abort    0x00008bde        0xe e:/siliconlabs/simplicitystudio/v5/developer/toolchains/gnu_arm/12.2.rel1_2023.7/bin/../lib/gcc/arm-none-eabi/12.2.1/thumb/v7e-m+fp/softfp\libc_nano.a(libc_a-abort.o)
                0x00008bde                abort
 .text.__sfputc_r
                0x00008bec       0x2e e:/siliconlabs/simplicitystudio/v5/developer/toolchains/gnu_arm/12.2.rel1_2023.7/bin/../lib/gcc/arm-none-eabi/12.2.1/thumb/v7e-m+fp/softfp\libc_nano.a(libc_a-nano-vfprintf.o)
 .text.__sfputs_r
                0x00008c1a       0x24 e:/siliconlabs/simplicitystudio/v5/developer/toolchains/gnu_arm/12.2.rel1_2023.7/bin/../lib/gcc/arm-none-eabi/12.2.1/thumb/v7e-m+fp/softfp\libc_nano.a(libc_a-nano-vfprintf.o)
                0x00008c1a                __sfputs_r
 .text._printf_common
                0x00008c3e       0xda e:/siliconlabs/simplicitystudio/v5/developer/toolchains/gnu_arm/12.2.rel1_2023.7/bin/../lib/gcc/arm-none-eabi/12.2.1/thumb/v7e-m+fp/softfp\libc_nano.a(libc_a-nano-vfprintf_i.o)
                0x00008c3e                _printf_common
 .text.__swbuf_r
                0x00008d18       0x7c e:/siliconlabs/simplicitystudio/v5/developer/toolchains/gnu_arm/12.2.rel1_2023.7/bin/../lib/gcc/arm-none-eabi/12.2.1/thumb/v7e-m+fp/softfp\libc_nano.a(libc_a-wbuf.o)
                0x00008d18                __swbuf_r
 .text._raise_r
                0x00008d94       0x50 e:/siliconlabs/simplicitystudio/v5/developer/toolchains/gnu_arm/12.2.rel1_2023.7/bin/../lib/gcc/arm-none-eabi/12.2.1/thumb/v7e-m+fp/softfp\libc_nano.a(libc_a-signal.o)
                0x00008d94                _raise_r
 .text._getpid_r
                0x00008de4        0x4 e:/siliconlabs/simplicitystudio/v5/developer/toolchains/gnu_arm/12.2.rel1_2023.7/bin/../lib/gcc/arm-none-eabi/12.2.1/thumb/v7e-m+fp/softfp\libc_nano.a(libc_a-signalr.o)
                0x00008de4                _getpid_r
 .text.__swhatbuf_r
                0x00008de8       0x4c e:/siliconlabs/simplicitystudio/v5/developer/toolchains/gnu_arm/12.2.rel1_2023.7/bin/../lib/gcc/arm-none-eabi/12.2.1/thumb/v7e-m+fp/softfp\libc_nano.a(libc_a-makebuf.o)
                0x00008de8                __swhatbuf_r
 .text.__smakebuf_r
                0x00008e34       0x78 e:/siliconlabs/simplicitystudio/v5/developer/toolchains/gnu_arm/12.2.rel1_2023.7/bin/../lib/gcc/arm-none-eabi/12.2.1/thumb/v7e-m+fp/softfp\libc_nano.a(libc_a-makebuf.o)
                0x00008e34                __smakebuf_r
                0x00008ec0                . = ALIGN (0x20)
 *fill*         0x00008eac       0x14 
                0x00008ec0                linker_code_end = .
 *(.init)
 .init          0x00008ec0        0x4 e:/siliconlabs/simplicitystudio/v5/developer/toolchains/gnu_arm/12.2.rel1_2023.7/bin/../lib/gcc/arm-none-eabi/12.2.1/thumb/v7e-m+fp/softfp/crti.o
                0x00008ec0                _init
 .init          0x00008ec4        0x8 e:/siliconlabs/simplicitystudio/v5/developer/toolchains/gnu_arm/12.2.rel1_2023.7/bin/../lib/gcc/arm-none-eabi/12.2.1/thumb/v7e-m+fp/softfp/crtn.o
 *(.fini)
 .fini          0x00008ecc        0x4 e:/siliconlabs/simplicitystudio/v5/developer/toolchains/gnu_arm/12.2.rel1_2023.7/bin/../lib/gcc/arm-none-eabi/12.2.1/thumb/v7e-m+fp/softfp/crti.o
                0x00008ecc                _fini
 .fini          0x00008ed0        0x8 e:/siliconlabs/simplicitystudio/v5/developer/toolchains/gnu_arm/12.2.rel1_2023.7/bin/../lib/gcc/arm-none-eabi/12.2.1/thumb/v7e-m+fp/softfp/crtn.o
 *crtbegin.o(.ctors)
 *crtbegin?.o(.ctors)
 *(EXCLUDE_FILE(*crtend.o *crtend?.o) .ctors)
 *(SORT_BY_NAME(.ctors.*))
 *(.ctors)
 *crtbegin.o(.dtors)
 *crtbegin?.o(.dtors)
 *(EXCLUDE_FILE(*crtend.o *crtend?.o) .dtors)
 *(SORT_BY_NAME(.dtors.*))
 *(.dtors)
                0x00008ed8                __code_classification_validator_start__ = .
                0x00008ef8                . = (. + 0x20)
 *fill*         0x00008ed8       0x20 
 *(code_classification_validator)
                0x00008f00                . = ALIGN (0x20)
 *fill*         0x00008ef8        0x8 
                0x00008f00                __code_classification_validator_end__ = .
 *(.rodata*)
 .rodata.sli_usbd_vendor_winusb_init.str2.2
                0x00008f00       0x76 ./autogen/sl_usbd_class_vendor_instances.o
 .rodata.sli_usbd_vendor_winusb_init.str1.1
                0x00008f76       0x4b ./autogen/sl_usbd_class_vendor_instances.o
 *fill*         0x00008fc1        0x3 
 .rodata.sli_usbd_vendor_winusb_callbacks
                0x00008fc4        0xc ./autogen/sl_usbd_class_vendor_instances.o
                0x00008fc4                sli_usbd_vendor_winusb_callbacks
 .rodata.sli_usbd_configuration_config0_init.str1.1
                0x00008fd0       0x13 ./autogen/sl_usbd_configuration_instances.o
 *fill*         0x00008fe3        0x1 
 .rodata.CSWTCH.3
                0x00008fe4       0x20 ./gecko_sdk_4.4.4/platform/Device/SiliconLabs/EFM32GG11B/Source/system_efm32gg11b.o
 .rodata.flashWaitStateControl.str1.1
                0x00009004       0x2f ./gecko_sdk_4.4.4/platform/emlib/src/em_cmu.o
 .rodata.CMU_PrescToLog2.str1.1
                0x00009033       0xc6 ./gecko_sdk_4.4.4/platform/emlib/src/em_cmu.o
 *fill*         0x000090f9        0x1 
 .rodata.CSWTCH.93
                0x000090fa        0xc ./gecko_sdk_4.4.4/platform/emlib/src/em_cmu.o
 .rodata.CSWTCH.92
                0x00009106        0xc ./gecko_sdk_4.4.4/platform/emlib/src/em_cmu.o
 .rodata.CSWTCH.91
                0x00009112        0x6 ./gecko_sdk_4.4.4/platform/emlib/src/em_cmu.o
 .rodata.CSWTCH.90
                0x00009118        0x6 ./gecko_sdk_4.4.4/platform/emlib/src/em_cmu.o
 *fill*         0x0000911e        0x2 
 .rodata.flashWsTable
                0x00009120       0x38 ./gecko_sdk_4.4.4/platform/emlib/src/em_cmu.o
 .rodata.vmonCalibratedThreshold.str1.1
                0x00009158       0x2f ./gecko_sdk_4.4.4/platform/emlib/src/em_emu.o
 *fill*         0x00009187        0x1 
 .rodata        0x00009188       0x10 ./gecko_sdk_4.4.4/platform/service/device_init/src/sl_device_init_dcdc_s1.o
 .rodata        0x00009198        0xc ./gecko_sdk_4.4.4/platform/service/device_init/src/sl_device_init_hfxo_s1.o
 .rodata        0x000091a4        0x4 ./gecko_sdk_4.4.4/platform/service/device_init/src/sl_device_init_lfxo_s1.o
 .rodata.usbd_vendor_driver
                0x000091a8       0x34 ./gecko_sdk_4.4.4/protocol/usb/src/sl_usbd_class_vendor.o
 .rodata.sl_usbd_core_init.str1.1
                0x000091dc       0x26 ./gecko_sdk_4.4.4/protocol/usb/src/sl_usbd_core.o
 .rodata.usbd_microsoft_subcompat_id
                0x00009202       0x20 ./gecko_sdk_4.4.4/protocol/usb/src/sl_usbd_core.o
 .rodata.usbd_microsoft_compat_id
                0x00009222       0x38 ./gecko_sdk_4.4.4/protocol/usb/src/sl_usbd_core.o
 .rodata.usbd_microsoft_signature_str
                0x0000925a        0x8 ./gecko_sdk_4.4.4/protocol/usb/src/sl_usbd_core.o
 .rodata.sli_usbd_core_os_create_endpoint_signal.str1.1
                0x00009262        0xf ./gecko_sdk_4.4.4/protocol/usb/src/sl_usbd_core_os.o
 .rodata.sli_usbd_core_os_create_endpoint_lock.str1.1
                0x00009271        0xb ./gecko_sdk_4.4.4/protocol/usb/src/sl_usbd_core_os.o
 .rodata.str1.1
                0x0000927c       0x17 ./gecko_sdk_4.4.4/protocol/usb/src/sl_usbd_core_os.o
 *fill*         0x00009293        0x1 
 .rodata.message_queue_attr
                0x00009294       0x18 ./gecko_sdk_4.4.4/protocol/usb/src/sl_usbd_core_os.o
 .rodata.task_attr
                0x000092ac       0x24 ./gecko_sdk_4.4.4/protocol/usb/src/sl_usbd_core_os.o
 .rodata.usbd_endpoint_info_table
                0x000092d0       0x34 ./gecko_sdk_4.4.4/protocol/usb/src/sl_usbd_driver_dwc_otg_fs.o
 .rodata.vApplicationStackOverflowHook.str1.1
                0x00009304       0x46 ./gecko_sdk_4.4.4/util/third_party/freertos/cmsis/Source/cmsis_os2.o
 .rodata.xQueueGenericReset.str1.1
                0x0000934a       0x3c ./gecko_sdk_4.4.4/util/third_party/freertos/kernel/queue.o
 .rodata.prvTaskIsTaskSuspended.str1.1
                0x00009386       0x3c ./gecko_sdk_4.4.4/util/third_party/freertos/kernel/tasks.o
 .rodata.vTaskStartScheduler.str1.1
                0x000093c2        0x5 ./gecko_sdk_4.4.4/util/third_party/freertos/kernel/tasks.o
 .rodata.prvCheckForValidListAndQueue.str1.1
                0x000093c7        0x5 ./gecko_sdk_4.4.4/util/third_party/freertos/kernel/timers.o
 .rodata.xTimerCreateTimerTask.str1.1
                0x000093cc       0x45 ./gecko_sdk_4.4.4/util/third_party/freertos/kernel/timers.o
 .rodata.prvTaskExitError.str1.1
                0x00009411       0x51 ./gecko_sdk_4.4.4/util/third_party/freertos/kernel/portable/GCC/ARM_CM4F/port.o
 .rodata.pvPortMalloc.str1.1
                0x00009462       0x4e ./gecko_sdk_4.4.4/util/third_party/freertos/kernel/portable/MemMang/heap_4.o
 .rodata.strtok.str1.1
                0x000094b0       0x72 e:/siliconlabs/simplicitystudio/v5/developer/toolchains/gnu_arm/12.2.rel1_2023.7/bin/../lib/gcc/arm-none-eabi/12.2.1/thumb/v7e-m+fp/softfp\libc_nano.a(libc_a-strtok.o)
 .rodata.__assert_func.str1.1
                0x00009522       0x3c e:/siliconlabs/simplicitystudio/v5/developer/toolchains/gnu_arm/12.2.rel1_2023.7/bin/../lib/gcc/arm-none-eabi/12.2.1/thumb/v7e-m+fp/softfp\libc_nano.a(libc_a-assert.o)
                                 0x3d (size before relaxing)
 .rodata._vfprintf_r.str1.1
                0x0000955e       0x11 e:/siliconlabs/simplicitystudio/v5/developer/toolchains/gnu_arm/12.2.rel1_2023.7/bin/../lib/gcc/arm-none-eabi/12.2.1/thumb/v7e-m+fp/softfp\libc_nano.a(libc_a-nano-vfprintf.o)
 .rodata._printf_i.str1.1
                0x0000956f       0x22 e:/siliconlabs/simplicitystudio/v5/developer/toolchains/gnu_arm/12.2.rel1_2023.7/bin/../lib/gcc/arm-none-eabi/12.2.1/thumb/v7e-m+fp/softfp\libc_nano.a(libc_a-nano-vfprintf_i.o)
 *(.eh_frame*)
 *fill*         0x00009591        0x3 
 .eh_frame      0x00009594        0x0 e:/siliconlabs/simplicitystudio/v5/developer/toolchains/gnu_arm/12.2.rel1_2023.7/bin/../lib/gcc/arm-none-eabi/12.2.1/thumb/v7e-m+fp/softfp/crtbegin.o

.glue_7         0x00009594        0x0
 .glue_7        0x00009594        0x0 linker stubs

.glue_7t        0x00009594        0x0
 .glue_7t       0x00009594        0x0 linker stubs

.vfp11_veneer   0x00009594        0x0
 .vfp11_veneer  0x00009594        0x0 linker stubs

.v4_bx          0x00009594        0x0
 .v4_bx         0x00009594        0x0 linker stubs

.iplt           0x00009594        0x0
 .iplt          0x00009594        0x0 e:/siliconlabs/simplicitystudio/v5/developer/toolchains/gnu_arm/12.2.rel1_2023.7/bin/../lib/gcc/arm-none-eabi/12.2.1/thumb/v7e-m+fp/softfp/crtbegin.o

.ARM.extab
 *(.ARM.extab* .gnu.linkonce.armextab.*)
                0x00009594                __exidx_start = .

.ARM.exidx      0x00009594        0x8
 *(.ARM.exidx* .gnu.linkonce.armexidx.*)
 .ARM.exidx     0x00009594        0x8 e:/siliconlabs/simplicitystudio/v5/developer/toolchains/gnu_arm/12.2.rel1_2023.7/bin/../lib/gcc/arm-none-eabi/12.2.1/thumb/v7e-m+fp/softfp/crt0.o
                                 0x10 (size before relaxing)
                0x0000959c                __exidx_end = .

.rel.dyn        0x0000959c        0x0
 .rel.iplt      0x0000959c        0x0 e:/siliconlabs/simplicitystudio/v5/developer/toolchains/gnu_arm/12.2.rel1_2023.7/bin/../lib/gcc/arm-none-eabi/12.2.1/thumb/v7e-m+fp/softfp/crtbegin.o

.copy.table     0x0000959c        0xc
                0x0000959c                . = ALIGN (0x4)
                0x0000959c                __copy_table_start__ = .
                0x0000959c        0x4 LONG 0x95a8 __etext
                0x000095a0        0x4 LONG 0x20001000 __data_start__
                0x000095a4        0x4 LONG 0x23 ((__data_end__ - __data_start__) / 0x4)
                0x000095a8                __copy_table_end__ = .

.zero.table     0x000095a8        0x0
                0x000095a8                . = ALIGN (0x4)
                0x000095a8                __zero_table_start__ = .
                0x000095a8                __zero_table_end__ = .
                0x000095a8                __etext = .
                0x20000000                . = ORIGIN (RAM)

.stack          0x20000000     0x1000
                0x20000000                __StackLimit = .
 *(.stack*)
 .stack         0x20000000     0x1000 ./gecko_sdk_4.4.4/platform/common/toolchain/src/sl_memory.o
                0x20001000                . = ALIGN (0x4)
                0x20001000                __StackTop = .
                0x20001000                PROVIDE (__stack = __StackTop)

.noinit
 *(.noinit*)

.data           0x20001000       0x8c load address 0x000095a8
                0x20001000                . = ALIGN (0x4)
                0x20001000                __data_start__ = .
 *(vtable)
 *(SORT_BY_ALIGNMENT(.data*))
 .data.SystemHfrcoFreq
                0x20001000        0x4 ./gecko_sdk_4.4.4/platform/Device/SiliconLabs/EFM32GG11B/Source/system_efm32gg11b.o
                0x20001000                SystemHfrcoFreq
 .data.SystemCoreClock
                0x20001004        0x4 ./gecko_sdk_4.4.4/platform/Device/SiliconLabs/EFM32GG11B/Source/system_efm32gg11b.o
                0x20001004                SystemCoreClock
 .data.SystemLFXOClock
                0x20001008        0x4 ./gecko_sdk_4.4.4/platform/Device/SiliconLabs/EFM32GG11B/Source/system_efm32gg11b.o
 .data.SystemHFXOClock
                0x2000100c        0x4 ./gecko_sdk_4.4.4/platform/Device/SiliconLabs/EFM32GG11B/Source/system_efm32gg11b.o
 .data.heap_end.0
                0x20001010        0x4 ./gecko_sdk_4.4.4/platform/common/toolchain/src/sl_memory.o
 .data.ushfrcoFreq
                0x20001014        0x4 ./gecko_sdk_4.4.4/platform/emlib/src/em_cmu.o
 .data.auxHfrcoFreq
                0x20001018        0x4 ./gecko_sdk_4.4.4/platform/emlib/src/em_cmu.o
 .data.uxTopUsedPriority
                0x2000101c        0x4 ./gecko_sdk_4.4.4/util/third_party/freertos/kernel/tasks.o
                0x2000101c                uxTopUsedPriority
 .data.uxCriticalNesting
                0x20001020        0x4 ./gecko_sdk_4.4.4/util/third_party/freertos/kernel/portable/GCC/ARM_CM4F/port.o
 .data.__sglue  0x20001024        0xc e:/siliconlabs/simplicitystudio/v5/developer/toolchains/gnu_arm/12.2.rel1_2023.7/bin/../lib/gcc/arm-none-eabi/12.2.1/thumb/v7e-m+fp/softfp\libc_nano.a(libc_a-findfp.o)
                0x20001024                __sglue
 .data._impure_ptr
                0x20001030        0x4 e:/siliconlabs/simplicitystudio/v5/developer/toolchains/gnu_arm/12.2.rel1_2023.7/bin/../lib/gcc/arm-none-eabi/12.2.1/thumb/v7e-m+fp/softfp\libc_nano.a(libc_a-impure.o)
                0x20001030                _impure_ptr
 .data._impure_data
                0x20001034       0x4c e:/siliconlabs/simplicitystudio/v5/developer/toolchains/gnu_arm/12.2.rel1_2023.7/bin/../lib/gcc/arm-none-eabi/12.2.1/thumb/v7e-m+fp/softfp\libc_nano.a(libc_a-impure.o)
                0x20001034                _impure_data
 .data.hfxo_precision
                0x20001080        0x2 ./gecko_sdk_4.4.4/platform/emlib/src/em_cmu.o
 .data.lfxo_precision
                0x20001082        0x2 ./gecko_sdk_4.4.4/platform/emlib/src/em_cmu.o
                0x20001084                . = ALIGN (0x4)
                [!provide]                PROVIDE (__ram_func_section_start = .)
 *(.ram)
                [!provide]                PROVIDE (__ram_func_section_end = .)
                0x20001084                . = ALIGN (0x4)
                0x20001084                PROVIDE (__preinit_array_start = .)
 *(.preinit_array)
                0x20001084                PROVIDE (__preinit_array_end = .)
                0x20001084                . = ALIGN (0x4)
                0x20001084                PROVIDE (__init_array_start = .)
 *(SORT_BY_NAME(.init_array.*))
 *(.init_array)
 .init_array    0x20001084        0x4 e:/siliconlabs/simplicitystudio/v5/developer/toolchains/gnu_arm/12.2.rel1_2023.7/bin/../lib/gcc/arm-none-eabi/12.2.1/thumb/v7e-m+fp/softfp/crtbegin.o
                0x20001088                PROVIDE (__init_array_end = .)
                0x20001088                . = ALIGN (0x4)
                [!provide]                PROVIDE (__fini_array_start = .)
 *(SORT_BY_NAME(.fini_array.*))
 *(.fini_array)
 .fini_array    0x20001088        0x4 e:/siliconlabs/simplicitystudio/v5/developer/toolchains/gnu_arm/12.2.rel1_2023.7/bin/../lib/gcc/arm-none-eabi/12.2.1/thumb/v7e-m+fp/softfp/crtbegin.o
                [!provide]                PROVIDE (__fini_array_end = .)
                0x2000108c                . = ALIGN (0x4)
                0x2000108c                __data_end__ = .

.tm_clone_table
                0x2000108c        0x0 load address 0x00009634
 .tm_clone_table
                0x2000108c        0x0 e:/siliconlabs/simplicitystudio/v5/developer/toolchains/gnu_arm/12.2.rel1_2023.7/bin/../lib/gcc/arm-none-eabi/12.2.1/thumb/v7e-m+fp/softfp/crtbegin.o
 .tm_clone_table
                0x2000108c        0x0 e:/siliconlabs/simplicitystudio/v5/developer/toolchains/gnu_arm/12.2.rel1_2023.7/bin/../lib/gcc/arm-none-eabi/12.2.1/thumb/v7e-m+fp/softfp/crtend.o

.igot.plt       0x2000108c        0x0 load address 0x00009634
 .igot.plt      0x2000108c        0x0 e:/siliconlabs/simplicitystudio/v5/developer/toolchains/gnu_arm/12.2.rel1_2023.7/bin/../lib/gcc/arm-none-eabi/12.2.1/thumb/v7e-m+fp/softfp/crtbegin.o

.bss            0x2000108c     0xba4c load address 0x00009634
                0x2000108c                . = ALIGN (0x4)
                0x2000108c                __bss_start__ = .
 *(SORT_BY_ALIGNMENT(.bss*))
 .bss.object.0  0x2000108c       0x18 e:/siliconlabs/simplicitystudio/v5/developer/toolchains/gnu_arm/12.2.rel1_2023.7/bin/../lib/gcc/arm-none-eabi/12.2.1/thumb/v7e-m+fp/softfp/crtbegin.o
 .bss.usbd_vendor
                0x200010a4       0xd8 ./gecko_sdk_4.4.4/protocol/usb/src/sl_usbd_class_vendor.o
 .bss.usbd_ptr  0x2000117c        0x4 ./gecko_sdk_4.4.4/protocol/usb/src/sl_usbd_core.o
                0x2000117c                usbd_ptr
 .bss.ctrl_status_buffer
                0x20001180        0x4 ./gecko_sdk_4.4.4/protocol/usb/src/sl_usbd_core.o
 .bss.descriptor_buffer
                0x20001184       0x40 ./gecko_sdk_4.4.4/protocol/usb/src/sl_usbd_core.o
 .bss.usb_device
                0x200011c4      0xad4 ./gecko_sdk_4.4.4/protocol/usb/src/sl_usbd_core.o
 .bss.mutex_attr
                0x20001c98      0x140 ./gecko_sdk_4.4.4/protocol/usb/src/sl_usbd_core_os.o
 .bss.mutex_handle
                0x20001dd8       0x50 ./gecko_sdk_4.4.4/protocol/usb/src/sl_usbd_core_os.o
 .bss.sem_id    0x20001e28       0x50 ./gecko_sdk_4.4.4/protocol/usb/src/sl_usbd_core_os.o
 .bss.sem_attr  0x20001e78      0x140 ./gecko_sdk_4.4.4/protocol/usb/src/sl_usbd_core_os.o
 .bss.message_queue_handle
                0x20001fb8        0x4 ./gecko_sdk_4.4.4/protocol/usb/src/sl_usbd_core_os.o
 .bss.usbd_driver_data
                0x20001fbc       0xa8 ./gecko_sdk_4.4.4/protocol/usb/src/sl_usbd_driver_dwc_otg_fs.o
                0x20001fbc                usbd_driver_data
 .bss.Timer_Stack.0
                0x20002064      0x280 ./gecko_sdk_4.4.4/util/third_party/freertos/cmsis/Source/cmsis_os2.o
 .bss.Timer_TCB.1
                0x200022e4       0x58 ./gecko_sdk_4.4.4/util/third_party/freertos/cmsis/Source/cmsis_os2.o
 .bss.Idle_Stack.2
                0x2000233c      0x280 ./gecko_sdk_4.4.4/util/third_party/freertos/cmsis/Source/cmsis_os2.o
 .bss.Idle_TCB.3
                0x200025bc       0x58 ./gecko_sdk_4.4.4/util/third_party/freertos/cmsis/Source/cmsis_os2.o
 .bss.KernelState
                0x20002614        0x4 ./gecko_sdk_4.4.4/util/third_party/freertos/cmsis/Source/cmsis_os2.o
 .bss.xQueueRegistry
                0x20002618       0x50 ./gecko_sdk_4.4.4/util/third_party/freertos/kernel/queue.o
                0x20002618                xQueueRegistry
 .bss.uxSchedulerSuspended
                0x20002668        0x4 ./gecko_sdk_4.4.4/util/third_party/freertos/kernel/tasks.o
 .bss.xNextTaskUnblockTime
                0x2000266c        0x4 ./gecko_sdk_4.4.4/util/third_party/freertos/kernel/tasks.o
 .bss.uxTaskNumber
                0x20002670        0x4 ./gecko_sdk_4.4.4/util/third_party/freertos/kernel/tasks.o
 .bss.xNumOfOverflows
                0x20002674        0x4 ./gecko_sdk_4.4.4/util/third_party/freertos/kernel/tasks.o
 .bss.xYieldPending
                0x20002678        0x4 ./gecko_sdk_4.4.4/util/third_party/freertos/kernel/tasks.o
 .bss.xPendedTicks
                0x2000267c        0x4 ./gecko_sdk_4.4.4/util/third_party/freertos/kernel/tasks.o
 .bss.xSchedulerRunning
                0x20002680        0x4 ./gecko_sdk_4.4.4/util/third_party/freertos/kernel/tasks.o
 .bss.uxTopReadyPriority
                0x20002684        0x4 ./gecko_sdk_4.4.4/util/third_party/freertos/kernel/tasks.o
 .bss.xTickCount
                0x20002688        0x4 ./gecko_sdk_4.4.4/util/third_party/freertos/kernel/tasks.o
 .bss.uxCurrentNumberOfTasks
                0x2000268c        0x4 ./gecko_sdk_4.4.4/util/third_party/freertos/kernel/tasks.o
 .bss.xSuspendedTaskList
                0x20002690       0x14 ./gecko_sdk_4.4.4/util/third_party/freertos/kernel/tasks.o
 .bss.uxDeletedTasksWaitingCleanUp
                0x200026a4        0x4 ./gecko_sdk_4.4.4/util/third_party/freertos/kernel/tasks.o
 .bss.xTasksWaitingTermination
                0x200026a8       0x14 ./gecko_sdk_4.4.4/util/third_party/freertos/kernel/tasks.o
 .bss.xPendingReadyList
                0x200026bc       0x14 ./gecko_sdk_4.4.4/util/third_party/freertos/kernel/tasks.o
 .bss.pxOverflowDelayedTaskList
                0x200026d0        0x4 ./gecko_sdk_4.4.4/util/third_party/freertos/kernel/tasks.o
 .bss.pxDelayedTaskList
                0x200026d4        0x4 ./gecko_sdk_4.4.4/util/third_party/freertos/kernel/tasks.o
 .bss.xDelayedTaskList2
                0x200026d8       0x14 ./gecko_sdk_4.4.4/util/third_party/freertos/kernel/tasks.o
 .bss.xDelayedTaskList1
                0x200026ec       0x14 ./gecko_sdk_4.4.4/util/third_party/freertos/kernel/tasks.o
 .bss.pxReadyTasksLists
                0x20002700      0x460 ./gecko_sdk_4.4.4/util/third_party/freertos/kernel/tasks.o
 .bss.pxCurrentTCB
                0x20002b60        0x4 ./gecko_sdk_4.4.4/util/third_party/freertos/kernel/tasks.o
                0x20002b60                pxCurrentTCB
 .bss.xStaticTimerQueue.0
                0x20002b64       0x50 ./gecko_sdk_4.4.4/util/third_party/freertos/kernel/timers.o
 .bss.xLastTime.2
                0x20002bb4        0x4 ./gecko_sdk_4.4.4/util/third_party/freertos/kernel/timers.o
 .bss.xTimerTaskHandle
                0x20002bb8        0x4 ./gecko_sdk_4.4.4/util/third_party/freertos/kernel/timers.o
 .bss.xTimerQueue
                0x20002bbc        0x4 ./gecko_sdk_4.4.4/util/third_party/freertos/kernel/timers.o
 .bss.pxOverflowTimerList
                0x20002bc0        0x4 ./gecko_sdk_4.4.4/util/third_party/freertos/kernel/timers.o
 .bss.pxCurrentTimerList
                0x20002bc4        0x4 ./gecko_sdk_4.4.4/util/third_party/freertos/kernel/timers.o
 .bss.xActiveTimerList2
                0x20002bc8       0x14 ./gecko_sdk_4.4.4/util/third_party/freertos/kernel/timers.o
 .bss.xActiveTimerList1
                0x20002bdc       0x14 ./gecko_sdk_4.4.4/util/third_party/freertos/kernel/timers.o
 .bss.ulMaxPRIGROUPValue
                0x20002bf0        0x4 ./gecko_sdk_4.4.4/util/third_party/freertos/kernel/portable/GCC/ARM_CM4F/port.o
 .bss.xBlockAllocatedBit
                0x20002bf4        0x4 ./gecko_sdk_4.4.4/util/third_party/freertos/kernel/portable/MemMang/heap_4.o
 .bss.xNumberOfSuccessfulFrees
                0x20002bf8        0x4 ./gecko_sdk_4.4.4/util/third_party/freertos/kernel/portable/MemMang/heap_4.o
 .bss.xNumberOfSuccessfulAllocations
                0x20002bfc        0x4 ./gecko_sdk_4.4.4/util/third_party/freertos/kernel/portable/MemMang/heap_4.o
 .bss.xMinimumEverFreeBytesRemaining
                0x20002c00        0x4 ./gecko_sdk_4.4.4/util/third_party/freertos/kernel/portable/MemMang/heap_4.o
 .bss.xFreeBytesRemaining
                0x20002c04        0x4 ./gecko_sdk_4.4.4/util/third_party/freertos/kernel/portable/MemMang/heap_4.o
 .bss.pxEnd     0x20002c08        0x4 ./gecko_sdk_4.4.4/util/third_party/freertos/kernel/portable/MemMang/heap_4.o
 .bss.xStart    0x20002c0c        0x8 ./gecko_sdk_4.4.4/util/third_party/freertos/kernel/portable/MemMang/heap_4.o
 .bss.__malloc_sbrk_start
                0x20002c14        0x4 e:/siliconlabs/simplicitystudio/v5/developer/toolchains/gnu_arm/12.2.rel1_2023.7/bin/../lib/gcc/arm-none-eabi/12.2.1/thumb/v7e-m+fp/softfp\libc_nano.a(libc_a-mallocr.o)
                0x20002c14                __malloc_sbrk_start
 .bss.__malloc_free_list
                0x20002c18        0x4 e:/siliconlabs/simplicitystudio/v5/developer/toolchains/gnu_arm/12.2.rel1_2023.7/bin/../lib/gcc/arm-none-eabi/12.2.1/thumb/v7e-m+fp/softfp\libc_nano.a(libc_a-mallocr.o)
                0x20002c18                __malloc_free_list
 .bss.__sf      0x20002c1c      0x138 e:/siliconlabs/simplicitystudio/v5/developer/toolchains/gnu_arm/12.2.rel1_2023.7/bin/../lib/gcc/arm-none-eabi/12.2.1/thumb/v7e-m+fp/softfp\libc_nano.a(libc_a-findfp.o)
                0x20002c1c                __sf
 .bss.__stdio_exit_handler
                0x20002d54        0x4 e:/siliconlabs/simplicitystudio/v5/developer/toolchains/gnu_arm/12.2.rel1_2023.7/bin/../lib/gcc/arm-none-eabi/12.2.1/thumb/v7e-m+fp/softfp\libc_nano.a(libc_a-findfp.o)
                0x20002d54                __stdio_exit_handler
 .bss.errno     0x20002d58        0x4 e:/siliconlabs/simplicitystudio/v5/developer/toolchains/gnu_arm/12.2.rel1_2023.7/bin/../lib/gcc/arm-none-eabi/12.2.1/thumb/v7e-m+fp/softfp\libc_nano.a(libc_a-reent.o)
                0x20002d58                errno
 .bss.dcdcReverseCurrentControl
                0x20002d5c        0x2 ./gecko_sdk_4.4.4/platform/emlib/src/em_emu.o
 .bss.dcdcEm01LoadCurrent_mA
                0x20002d5e        0x2 ./gecko_sdk_4.4.4/platform/emlib/src/em_emu.o
 .bss.dcdcMaxCurrent_mA
                0x20002d60        0x2 ./gecko_sdk_4.4.4/platform/emlib/src/em_emu.o
 .bss.completed.1
                0x20002d62        0x1 e:/siliconlabs/simplicitystudio/v5/developer/toolchains/gnu_arm/12.2.rel1_2023.7/bin/../lib/gcc/arm-none-eabi/12.2.1/thumb/v7e-m+fp/softfp/crtbegin.o
 .bss.sl_usbd_vendor_winusb_number
                0x20002d63        0x1 ./autogen/sl_usbd_class_vendor_instances.o
                0x20002d63                sl_usbd_vendor_winusb_number
 .bss.UsbClassVendorDeviceInterfaceGuid
                0x20002d64       0x4e ./autogen/sl_usbd_class_vendor_instances.o
                0x20002d64                UsbClassVendorDeviceInterfaceGuid
 .bss.UsbClassVendorDescription
                0x20002db2       0x41 ./autogen/sl_usbd_class_vendor_instances.o
                0x20002db2                UsbClassVendorDescription
 .bss.sl_usbd_configuration_config0_number
                0x20002df3        0x1 ./autogen/sl_usbd_configuration_instances.o
                0x20002df3                sl_usbd_configuration_config0_number
 .bss.vScaleEM01Config
                0x20002df4        0x1 ./gecko_sdk_4.4.4/platform/emlib/src/em_emu.o
 .bss.ucStaticTimerQueueStorage.1
                0x20002df5       0xa0 ./gecko_sdk_4.4.4/util/third_party/freertos/kernel/timers.o
 .bss.ucMaxSysCallPriority
                0x20002e95        0x1 ./gecko_sdk_4.4.4/util/third_party/freertos/kernel/portable/GCC/ARM_CM4F/port.o
 .bss.ucHeap    0x20002e96     0x9c40 ./gecko_sdk_4.4.4/util/third_party/freertos/kernel/portable/MemMang/heap_4.o
 .bss.__lock___malloc_recursive_mutex
                0x2000cad6        0x1 e:/siliconlabs/simplicitystudio/v5/developer/toolchains/gnu_arm/12.2.rel1_2023.7/bin/../lib/gcc/arm-none-eabi/12.2.1/thumb/v7e-m+fp/softfp\libc_nano.a(libc_a-lock.o)
                0x2000cad6                __lock___malloc_recursive_mutex
 .bss.__lock___sfp_recursive_mutex
                0x2000cad7        0x1 e:/siliconlabs/simplicitystudio/v5/developer/toolchains/gnu_arm/12.2.rel1_2023.7/bin/../lib/gcc/arm-none-eabi/12.2.1/thumb/v7e-m+fp/softfp\libc_nano.a(libc_a-lock.o)
                0x2000cad7                __lock___sfp_recursive_mutex
 *(COMMON)
                0x2000cad8                . = ALIGN (0x4)
                0x2000cad8                __bss_end__ = .
                0x2000cad8                __ramfuncs_start__ = .
                0x2000cad8                __vma_ramfuncs_start__ = .
                0x00009634                __lma_ramfuncs_start__ = (__etext + SIZEOF (.data))
                0x00000000                __text_application_ram_offset__ = (. - __vma_ramfuncs_start__)

text_application_ram
                0x2000cad8        0x0 load address 0x00009634
                0x2000cad8                . = ALIGN (0x4)
                0x2000cad8                __text_application_ram_start__ = .
 *(text_application_ram)
                0x2000cad8                . = ALIGN (0x4)
                0x2000cad8                __text_application_ram_end__ = .
                0x2000cad8                . = ALIGN (0x4)
                0x2000cad8                __vma_ramfuncs_end__ = .
                0x00009634                __lma_ramfuncs_end__ = ((__lma_ramfuncs_start__ + __text_application_ram_offset__) + SIZEOF (text_application_ram))
                0x2000cad8                __ramfuncs_end__ = .

.heap           0x2000cad8      0x800
                0x2000cad8                __HeapBase = .
                0x2000cad8                __end__ = .
                0x2000cad8                end = __end__
                0x2000cad8                _end = __end__
 *(.heap*)
 .heap          0x2000cad8      0x800 ./gecko_sdk_4.4.4/platform/common/toolchain/src/sl_memory.o
                0x20080000                __HeapLimit = (ORIGIN (RAM) + LENGTH (RAM))
                0x00073528                __heap_size = (__HeapLimit - __HeapBase)
                0x20080000                __ram_end__ = 0x20080000
                0x00200000                __main_flash_end__ = 0x200000

.internal_storage
 *(.internal_storage*)

.nvm
 *(.simee*)
                0x00200000                linker_nvm_end = __main_flash_end__
                0x00200000                linker_nvm_begin = (linker_nvm_end - SIZEOF (.nvm))
                0x00000000                linker_nvm_size = SIZEOF (.nvm)
                0x00200000                linker_storage_end = linker_nvm_begin
                0x00200000                __nvm3Base = linker_nvm_begin
                0x00200000                linker_storage_begin = (linker_storage_end - SIZEOF (.internal_storage))
                0x00000000                linker_storage_size = SIZEOF (.internal_storage)
                0x00000001                ASSERT ((linker_storage_begin >= (__etext + SIZEOF (.data))), FLASH memory overflowed !)
OUTPUT(usb_device_winusb_skyworks.axf elf32-littlearm)
LOAD linker stubs

.ARM.attributes
                0x00000000       0x2e
 .ARM.attributes
                0x00000000       0x22 e:/siliconlabs/simplicitystudio/v5/developer/toolchains/gnu_arm/12.2.rel1_2023.7/bin/../lib/gcc/arm-none-eabi/12.2.1/thumb/v7e-m+fp/softfp/crti.o
 .ARM.attributes
                0x00000022       0x32 e:/siliconlabs/simplicitystudio/v5/developer/toolchains/gnu_arm/12.2.rel1_2023.7/bin/../lib/gcc/arm-none-eabi/12.2.1/thumb/v7e-m+fp/softfp/crtbegin.o
 .ARM.attributes
                0x00000054       0x20 e:/siliconlabs/simplicitystudio/v5/developer/toolchains/gnu_arm/12.2.rel1_2023.7/bin/../lib/gcc/arm-none-eabi/12.2.1/thumb/v7e-m+fp/softfp/crt0.o
 .ARM.attributes
                0x00000074       0x32 ./app.o
 .ARM.attributes
                0x000000a6       0x32 ./main.o
 .ARM.attributes
                0x000000d8       0x32 ./usb_composite_app.o
 .ARM.attributes
                0x0000010a       0x32 ./autogen/sl_board_default_init.o
 .ARM.attributes
                0x0000013c       0x32 ./autogen/sl_device_init_clocks.o
 .ARM.attributes
                0x0000016e       0x32 ./autogen/sl_event_handler.o
 .ARM.attributes
                0x000001a0       0x32 ./autogen/sl_usbd_class_vendor_instances.o
 .ARM.attributes
                0x000001d2       0x32 ./autogen/sl_usbd_configuration_instances.o
 .ARM.attributes
                0x00000204       0x32 ./autogen/sl_usbd_init.o
 .ARM.attributes
                0x00000236       0x32 ./gecko_sdk_4.4.4/hardware/board/src/sl_board_init.o
 .ARM.attributes
                0x00000268       0x32 ./gecko_sdk_4.4.4/platform/Device/SiliconLabs/EFM32GG11B/Source/startup_efm32gg11b.o
 .ARM.attributes
                0x0000029a       0x32 ./gecko_sdk_4.4.4/platform/Device/SiliconLabs/EFM32GG11B/Source/system_efm32gg11b.o
 .ARM.attributes
                0x000002cc       0x32 ./gecko_sdk_4.4.4/platform/common/src/sl_assert.o
 .ARM.attributes
                0x000002fe       0x32 ./gecko_sdk_4.4.4/platform/common/src/sl_string.o
 .ARM.attributes
                0x00000330       0x32 ./gecko_sdk_4.4.4/platform/common/src/sl_syscalls.o
 .ARM.attributes
                0x00000362       0x32 ./gecko_sdk_4.4.4/platform/common/toolchain/src/sl_memory.o
 .ARM.attributes
                0x00000394       0x32 ./gecko_sdk_4.4.4/platform/emlib/src/em_cmu.o
 .ARM.attributes
                0x000003c6       0x32 ./gecko_sdk_4.4.4/platform/emlib/src/em_core.o
 .ARM.attributes
                0x000003f8       0x32 ./gecko_sdk_4.4.4/platform/emlib/src/em_emu.o
 .ARM.attributes
                0x0000042a       0x32 ./gecko_sdk_4.4.4/platform/service/device_init/src/sl_device_init_dcdc_s1.o
 .ARM.attributes
                0x0000045c       0x32 ./gecko_sdk_4.4.4/platform/service/device_init/src/sl_device_init_emu_s1.o
 .ARM.attributes
                0x0000048e       0x32 ./gecko_sdk_4.4.4/platform/service/device_init/src/sl_device_init_hfxo_s1.o
 .ARM.attributes
                0x000004c0       0x32 ./gecko_sdk_4.4.4/platform/service/device_init/src/sl_device_init_lfxo_s1.o
 .ARM.attributes
                0x000004f2       0x32 ./gecko_sdk_4.4.4/platform/service/device_init/src/sl_device_init_nvic.o
 .ARM.attributes
                0x00000524       0x32 ./gecko_sdk_4.4.4/platform/service/system/src/sl_system_init.o
 .ARM.attributes
                0x00000556       0x32 ./gecko_sdk_4.4.4/platform/service/system/src/sl_system_kernel.o
 .ARM.attributes
                0x00000588       0x32 ./gecko_sdk_4.4.4/protocol/usb/src/sl_usbd_class_vendor.o
 .ARM.attributes
                0x000005ba       0x32 ./gecko_sdk_4.4.4/protocol/usb/src/sl_usbd_core.o
 .ARM.attributes
                0x000005ec       0x32 ./gecko_sdk_4.4.4/protocol/usb/src/sl_usbd_core_ep.o
 .ARM.attributes
                0x0000061e       0x32 ./gecko_sdk_4.4.4/protocol/usb/src/sl_usbd_core_os.o
 .ARM.attributes
                0x00000650       0x32 ./gecko_sdk_4.4.4/protocol/usb/src/sl_usbd_driver_dwc_otg_fs.o
 .ARM.attributes
                0x00000682       0x32 ./gecko_sdk_4.4.4/util/third_party/freertos/cmsis/Source/cmsis_os2.o
 .ARM.attributes
                0x000006b4       0x32 ./gecko_sdk_4.4.4/util/third_party/freertos/kernel/list.o
 .ARM.attributes
                0x000006e6       0x32 ./gecko_sdk_4.4.4/util/third_party/freertos/kernel/queue.o
 .ARM.attributes
                0x00000718       0x32 ./gecko_sdk_4.4.4/util/third_party/freertos/kernel/tasks.o
 .ARM.attributes
                0x0000074a       0x32 ./gecko_sdk_4.4.4/util/third_party/freertos/kernel/timers.o
 .ARM.attributes
                0x0000077c       0x32 ./gecko_sdk_4.4.4/util/third_party/freertos/kernel/portable/GCC/ARM_CM4F/port.o
 .ARM.attributes
                0x000007ae       0x32 ./gecko_sdk_4.4.4/util/third_party/freertos/kernel/portable/MemMang/heap_4.o
 .ARM.attributes
                0x000007e0       0x32 e:/siliconlabs/simplicitystudio/v5/developer/toolchains/gnu_arm/12.2.rel1_2023.7/bin/../lib/gcc/arm-none-eabi/12.2.1/thumb/v7e-m+fp/softfp\libc_nano.a(libc_a-exit.o)
 .ARM.attributes
                0x00000812       0x32 e:/siliconlabs/simplicitystudio/v5/developer/toolchains/gnu_arm/12.2.rel1_2023.7/bin/../lib/gcc/arm-none-eabi/12.2.1/thumb/v7e-m+fp/softfp\libc_nano.a(libc_a-malloc.o)
 .ARM.attributes
                0x00000844       0x32 e:/siliconlabs/simplicitystudio/v5/developer/toolchains/gnu_arm/12.2.rel1_2023.7/bin/../lib/gcc/arm-none-eabi/12.2.1/thumb/v7e-m+fp/softfp\libc_nano.a(libc_a-mallocr.o)
 .ARM.attributes
                0x00000876       0x32 e:/siliconlabs/simplicitystudio/v5/developer/toolchains/gnu_arm/12.2.rel1_2023.7/bin/../lib/gcc/arm-none-eabi/12.2.1/thumb/v7e-m+fp/softfp\libc_nano.a(libc_a-mlock.o)
 .ARM.attributes
                0x000008a8       0x32 e:/siliconlabs/simplicitystudio/v5/developer/toolchains/gnu_arm/12.2.rel1_2023.7/bin/../lib/gcc/arm-none-eabi/12.2.1/thumb/v7e-m+fp/softfp\libc_nano.a(libc_a-findfp.o)
 .ARM.attributes
                0x000008da       0x32 e:/siliconlabs/simplicitystudio/v5/developer/toolchains/gnu_arm/12.2.rel1_2023.7/bin/../lib/gcc/arm-none-eabi/12.2.1/thumb/v7e-m+fp/softfp\libc_nano.a(libc_a-fwalk.o)
 .ARM.attributes
                0x0000090c       0x32 e:/siliconlabs/simplicitystudio/v5/developer/toolchains/gnu_arm/12.2.rel1_2023.7/bin/../lib/gcc/arm-none-eabi/12.2.1/thumb/v7e-m+fp/softfp\libc_nano.a(libc_a-stdio.o)
 .ARM.attributes
                0x0000093e       0x32 e:/siliconlabs/simplicitystudio/v5/developer/toolchains/gnu_arm/12.2.rel1_2023.7/bin/../lib/gcc/arm-none-eabi/12.2.1/thumb/v7e-m+fp/softfp\libc_nano.a(libc_a-memset.o)
 .ARM.attributes
                0x00000970       0x32 e:/siliconlabs/simplicitystudio/v5/developer/toolchains/gnu_arm/12.2.rel1_2023.7/bin/../lib/gcc/arm-none-eabi/12.2.1/thumb/v7e-m+fp/softfp\libc_nano.a(libc_a-strtok.o)
 .ARM.attributes
                0x000009a2       0x32 e:/siliconlabs/simplicitystudio/v5/developer/toolchains/gnu_arm/12.2.rel1_2023.7/bin/../lib/gcc/arm-none-eabi/12.2.1/thumb/v7e-m+fp/softfp\libc_nano.a(libc_a-strtok_r.o)
 .ARM.attributes
                0x000009d4       0x32 e:/siliconlabs/simplicitystudio/v5/developer/toolchains/gnu_arm/12.2.rel1_2023.7/bin/../lib/gcc/arm-none-eabi/12.2.1/thumb/v7e-m+fp/softfp\libc_nano.a(libc_a-closer.o)
 .ARM.attributes
                0x00000a06       0x32 e:/siliconlabs/simplicitystudio/v5/developer/toolchains/gnu_arm/12.2.rel1_2023.7/bin/../lib/gcc/arm-none-eabi/12.2.1/thumb/v7e-m+fp/softfp\libc_nano.a(libc_a-reent.o)
 .ARM.attributes
                0x00000a38       0x32 e:/siliconlabs/simplicitystudio/v5/developer/toolchains/gnu_arm/12.2.rel1_2023.7/bin/../lib/gcc/arm-none-eabi/12.2.1/thumb/v7e-m+fp/softfp\libc_nano.a(libc_a-impure.o)
 .ARM.attributes
                0x00000a6a       0x32 e:/siliconlabs/simplicitystudio/v5/developer/toolchains/gnu_arm/12.2.rel1_2023.7/bin/../lib/gcc/arm-none-eabi/12.2.1/thumb/v7e-m+fp/softfp\libc_nano.a(libc_a-lseekr.o)
 .ARM.attributes
                0x00000a9c       0x32 e:/siliconlabs/simplicitystudio/v5/developer/toolchains/gnu_arm/12.2.rel1_2023.7/bin/../lib/gcc/arm-none-eabi/12.2.1/thumb/v7e-m+fp/softfp\libc_nano.a(libc_a-readr.o)
 .ARM.attributes
                0x00000ace       0x32 e:/siliconlabs/simplicitystudio/v5/developer/toolchains/gnu_arm/12.2.rel1_2023.7/bin/../lib/gcc/arm-none-eabi/12.2.1/thumb/v7e-m+fp/softfp\libc_nano.a(libc_a-sbrkr.o)
 .ARM.attributes
                0x00000b00       0x32 e:/siliconlabs/simplicitystudio/v5/developer/toolchains/gnu_arm/12.2.rel1_2023.7/bin/../lib/gcc/arm-none-eabi/12.2.1/thumb/v7e-m+fp/softfp\libc_nano.a(libc_a-writer.o)
 .ARM.attributes
                0x00000b32       0x32 e:/siliconlabs/simplicitystudio/v5/developer/toolchains/gnu_arm/12.2.rel1_2023.7/bin/../lib/gcc/arm-none-eabi/12.2.1/thumb/v7e-m+fp/softfp\libc_nano.a(libc_a-init.o)
 .ARM.attributes
                0x00000b64       0x32 e:/siliconlabs/simplicitystudio/v5/developer/toolchains/gnu_arm/12.2.rel1_2023.7/bin/../lib/gcc/arm-none-eabi/12.2.1/thumb/v7e-m+fp/softfp\libc_nano.a(libc_a-lock.o)
 .ARM.attributes
                0x00000b96       0x20 e:/siliconlabs/simplicitystudio/v5/developer/toolchains/gnu_arm/12.2.rel1_2023.7/bin/../lib/gcc/arm-none-eabi/12.2.1/thumb/v7e-m+fp/softfp\libc_nano.a(libc_a-strcmp.o)
 .ARM.attributes
                0x00000bb6       0x32 e:/siliconlabs/simplicitystudio/v5/developer/toolchains/gnu_arm/12.2.rel1_2023.7/bin/../lib/gcc/arm-none-eabi/12.2.1/thumb/v7e-m+fp/softfp\libc_nano.a(libc_a-memcpy-stub.o)
 .ARM.attributes
                0x00000be8       0x32 e:/siliconlabs/simplicitystudio/v5/developer/toolchains/gnu_arm/12.2.rel1_2023.7/bin/../lib/gcc/arm-none-eabi/12.2.1/thumb/v7e-m+fp/softfp\libc_nano.a(libc_a-assert.o)
 .ARM.attributes
                0x00000c1a       0x32 e:/siliconlabs/simplicitystudio/v5/developer/toolchains/gnu_arm/12.2.rel1_2023.7/bin/../lib/gcc/arm-none-eabi/12.2.1/thumb/v7e-m+fp/softfp\libc_nano.a(libc_a-freer.o)
 .ARM.attributes
                0x00000c4c       0x32 e:/siliconlabs/simplicitystudio/v5/developer/toolchains/gnu_arm/12.2.rel1_2023.7/bin/../lib/gcc/arm-none-eabi/12.2.1/thumb/v7e-m+fp/softfp\libc_nano.a(libc_a-fflush.o)
 .ARM.attributes
                0x00000c7e       0x32 e:/siliconlabs/simplicitystudio/v5/developer/toolchains/gnu_arm/12.2.rel1_2023.7/bin/../lib/gcc/arm-none-eabi/12.2.1/thumb/v7e-m+fp/softfp\libc_nano.a(libc_a-fprintf.o)
 .ARM.attributes
                0x00000cb0       0x32 e:/siliconlabs/simplicitystudio/v5/developer/toolchains/gnu_arm/12.2.rel1_2023.7/bin/../lib/gcc/arm-none-eabi/12.2.1/thumb/v7e-m+fp/softfp\libc_nano.a(libc_a-abort.o)
 .ARM.attributes
                0x00000ce2       0x32 e:/siliconlabs/simplicitystudio/v5/developer/toolchains/gnu_arm/12.2.rel1_2023.7/bin/../lib/gcc/arm-none-eabi/12.2.1/thumb/v7e-m+fp/softfp\libc_nano.a(libc_a-nano-vfprintf.o)
 .ARM.attributes
                0x00000d14       0x32 e:/siliconlabs/simplicitystudio/v5/developer/toolchains/gnu_arm/12.2.rel1_2023.7/bin/../lib/gcc/arm-none-eabi/12.2.1/thumb/v7e-m+fp/softfp\libc_nano.a(libc_a-nano-vfprintf_i.o)
 .ARM.attributes
                0x00000d46       0x32 e:/siliconlabs/simplicitystudio/v5/developer/toolchains/gnu_arm/12.2.rel1_2023.7/bin/../lib/gcc/arm-none-eabi/12.2.1/thumb/v7e-m+fp/softfp\libc_nano.a(libc_a-wbuf.o)
 .ARM.attributes
                0x00000d78       0x32 e:/siliconlabs/simplicitystudio/v5/developer/toolchains/gnu_arm/12.2.rel1_2023.7/bin/../lib/gcc/arm-none-eabi/12.2.1/thumb/v7e-m+fp/softfp\libc_nano.a(libc_a-wsetup.o)
 .ARM.attributes
                0x00000daa       0x32 e:/siliconlabs/simplicitystudio/v5/developer/toolchains/gnu_arm/12.2.rel1_2023.7/bin/../lib/gcc/arm-none-eabi/12.2.1/thumb/v7e-m+fp/softfp\libc_nano.a(libc_a-signal.o)
 .ARM.attributes
                0x00000ddc       0x32 e:/siliconlabs/simplicitystudio/v5/developer/toolchains/gnu_arm/12.2.rel1_2023.7/bin/../lib/gcc/arm-none-eabi/12.2.1/thumb/v7e-m+fp/softfp\libc_nano.a(libc_a-signalr.o)
 .ARM.attributes
                0x00000e0e       0x1c e:/siliconlabs/simplicitystudio/v5/developer/toolchains/gnu_arm/12.2.rel1_2023.7/bin/../lib/gcc/arm-none-eabi/12.2.1/thumb/v7e-m+fp/softfp\libc_nano.a(libc_a-memchr.o)
 .ARM.attributes
                0x00000e2a       0x32 e:/siliconlabs/simplicitystudio/v5/developer/toolchains/gnu_arm/12.2.rel1_2023.7/bin/../lib/gcc/arm-none-eabi/12.2.1/thumb/v7e-m+fp/softfp\libc_nano.a(libc_a-makebuf.o)
 .ARM.attributes
                0x00000e5c       0x32 e:/siliconlabs/simplicitystudio/v5/developer/toolchains/gnu_arm/12.2.rel1_2023.7/bin/../lib/gcc/arm-none-eabi/12.2.1/thumb/v7e-m+fp/softfp\libc_nano.a(libc_a-fstatr.o)
 .ARM.attributes
                0x00000e8e       0x32 e:/siliconlabs/simplicitystudio/v5/developer/toolchains/gnu_arm/12.2.rel1_2023.7/bin/../lib/gcc/arm-none-eabi/12.2.1/thumb/v7e-m+fp/softfp\libc_nano.a(libc_a-isattyr.o)
 .ARM.attributes
                0x00000ec0       0x32 e:/siliconlabs/simplicitystudio/v5/developer/toolchains/gnu_arm/12.2.rel1_2023.7/bin/../lib/gcc/arm-none-eabi/12.2.1/thumb/v7e-m+fp/softfp/crtend.o
 .ARM.attributes
                0x00000ef2       0x22 e:/siliconlabs/simplicitystudio/v5/developer/toolchains/gnu_arm/12.2.rel1_2023.7/bin/../lib/gcc/arm-none-eabi/12.2.1/thumb/v7e-m+fp/softfp/crtn.o

.comment        0x00000000       0x45
 .comment       0x00000000       0x45 ./app.o
                                 0x46 (size before relaxing)
 .comment       0x00000045       0x46 ./main.o
 .comment       0x00000045       0x46 ./usb_composite_app.o
 .comment       0x00000045       0x46 ./autogen/sl_board_default_init.o
 .comment       0x00000045       0x46 ./autogen/sl_device_init_clocks.o
 .comment       0x00000045       0x46 ./autogen/sl_event_handler.o
 .comment       0x00000045       0x46 ./autogen/sl_usbd_class_vendor_instances.o
 .comment       0x00000045       0x46 ./autogen/sl_usbd_configuration_instances.o
 .comment       0x00000045       0x46 ./autogen/sl_usbd_init.o
 .comment       0x00000045       0x46 ./gecko_sdk_4.4.4/hardware/board/src/sl_board_init.o
 .comment       0x00000045       0x46 ./gecko_sdk_4.4.4/platform/Device/SiliconLabs/EFM32GG11B/Source/startup_efm32gg11b.o
 .comment       0x00000045       0x46 ./gecko_sdk_4.4.4/platform/Device/SiliconLabs/EFM32GG11B/Source/system_efm32gg11b.o
 .comment       0x00000045       0x46 ./gecko_sdk_4.4.4/platform/common/src/sl_assert.o
 .comment       0x00000045       0x46 ./gecko_sdk_4.4.4/platform/common/src/sl_string.o
 .comment       0x00000045       0x46 ./gecko_sdk_4.4.4/platform/common/src/sl_syscalls.o
 .comment       0x00000045       0x46 ./gecko_sdk_4.4.4/platform/common/toolchain/src/sl_memory.o
 .comment       0x00000045       0x46 ./gecko_sdk_4.4.4/platform/emlib/src/em_cmu.o
 .comment       0x00000045       0x46 ./gecko_sdk_4.4.4/platform/emlib/src/em_core.o
 .comment       0x00000045       0x46 ./gecko_sdk_4.4.4/platform/emlib/src/em_emu.o
 .comment       0x00000045       0x46 ./gecko_sdk_4.4.4/platform/service/device_init/src/sl_device_init_dcdc_s1.o
 .comment       0x00000045       0x46 ./gecko_sdk_4.4.4/platform/service/device_init/src/sl_device_init_emu_s1.o
 .comment       0x00000045       0x46 ./gecko_sdk_4.4.4/platform/service/device_init/src/sl_device_init_hfxo_s1.o
 .comment       0x00000045       0x46 ./gecko_sdk_4.4.4/platform/service/device_init/src/sl_device_init_lfxo_s1.o
 .comment       0x00000045       0x46 ./gecko_sdk_4.4.4/platform/service/device_init/src/sl_device_init_nvic.o
 .comment       0x00000045       0x46 ./gecko_sdk_4.4.4/platform/service/system/src/sl_system_init.o
 .comment       0x00000045       0x46 ./gecko_sdk_4.4.4/platform/service/system/src/sl_system_kernel.o
 .comment       0x00000045       0x46 ./gecko_sdk_4.4.4/protocol/usb/src/sl_usbd_class_vendor.o
 .comment       0x00000045       0x46 ./gecko_sdk_4.4.4/protocol/usb/src/sl_usbd_core.o
 .comment       0x00000045       0x46 ./gecko_sdk_4.4.4/protocol/usb/src/sl_usbd_core_ep.o
 .comment       0x00000045       0x46 ./gecko_sdk_4.4.4/protocol/usb/src/sl_usbd_core_os.o
 .comment       0x00000045       0x46 ./gecko_sdk_4.4.4/protocol/usb/src/sl_usbd_driver_dwc_otg_fs.o
 .comment       0x00000045       0x46 ./gecko_sdk_4.4.4/util/third_party/freertos/cmsis/Source/cmsis_os2.o
 .comment       0x00000045       0x46 ./gecko_sdk_4.4.4/util/third_party/freertos/kernel/list.o
 .comment       0x00000045       0x46 ./gecko_sdk_4.4.4/util/third_party/freertos/kernel/queue.o
 .comment       0x00000045       0x46 ./gecko_sdk_4.4.4/util/third_party/freertos/kernel/tasks.o
 .comment       0x00000045       0x46 ./gecko_sdk_4.4.4/util/third_party/freertos/kernel/timers.o
 .comment       0x00000045       0x46 ./gecko_sdk_4.4.4/util/third_party/freertos/kernel/portable/GCC/ARM_CM4F/port.o
 .comment       0x00000045       0x46 ./gecko_sdk_4.4.4/util/third_party/freertos/kernel/portable/MemMang/heap_4.o

.debug_line_str
                0x00000000      0x1da
 .debug_line_str
                0x00000000       0xe5 e:/siliconlabs/simplicitystudio/v5/developer/toolchains/gnu_arm/12.2.rel1_2023.7/bin/../lib/gcc/arm-none-eabi/12.2.1/thumb/v7e-m+fp/softfp/crt0.o
 .debug_line_str
                0x000000e5       0xec e:/siliconlabs/simplicitystudio/v5/developer/toolchains/gnu_arm/12.2.rel1_2023.7/bin/../lib/gcc/arm-none-eabi/12.2.1/thumb/v7e-m+fp/softfp\libc_nano.a(libc_a-strcmp.o)
 .debug_line_str
                0x000001d1        0x9 e:/siliconlabs/simplicitystudio/v5/developer/toolchains/gnu_arm/12.2.rel1_2023.7/bin/../lib/gcc/arm-none-eabi/12.2.1/thumb/v7e-m+fp/softfp\libc_nano.a(libc_a-memchr.o)
                                 0xe3 (size before relaxing)

.debug_info     0x00000000    0x2e8d1
 .debug_info    0x00000000       0x40 ./app.o
 .debug_info    0x00000040       0x8d ./main.o
 .debug_info    0x000000cd      0x1a2 ./usb_composite_app.o
 .debug_info    0x0000026f       0x86 ./autogen/sl_board_default_init.o
 .debug_info    0x000002f5      0xa62 ./autogen/sl_device_init_clocks.o
 .debug_info    0x00000d57      0xa7b ./autogen/sl_event_handler.o
 .debug_info    0x000017d2      0x615 ./autogen/sl_usbd_class_vendor_instances.o
 .debug_info    0x00001de7      0x201 ./autogen/sl_usbd_configuration_instances.o
 .debug_info    0x00001fe8       0xed ./autogen/sl_usbd_init.o
 .debug_info    0x000020d5      0x408 ./gecko_sdk_4.4.4/hardware/board/src/sl_board_init.o
 .debug_info    0x000024dd      0x322 ./gecko_sdk_4.4.4/platform/Device/SiliconLabs/EFM32GG11B/Source/startup_efm32gg11b.o
 .debug_info    0x000027ff      0xa54 ./gecko_sdk_4.4.4/platform/Device/SiliconLabs/EFM32GG11B/Source/system_efm32gg11b.o
 .debug_info    0x00003253       0x86 ./gecko_sdk_4.4.4/platform/common/src/sl_assert.o
 .debug_info    0x000032d9      0x49c ./gecko_sdk_4.4.4/platform/common/src/sl_string.o
 .debug_info    0x00003775      0x306 ./gecko_sdk_4.4.4/platform/common/src/sl_syscalls.o
 .debug_info    0x00003a7b      0x205 ./gecko_sdk_4.4.4/platform/common/toolchain/src/sl_memory.o
 .debug_info    0x00003c80     0x582b ./gecko_sdk_4.4.4/platform/emlib/src/em_cmu.o
 .debug_info    0x000094ab     0x123c ./gecko_sdk_4.4.4/platform/emlib/src/em_core.o
 .debug_info    0x0000a6e7     0x4719 ./gecko_sdk_4.4.4/platform/emlib/src/em_emu.o
 .debug_info    0x0000ee00      0x281 ./gecko_sdk_4.4.4/platform/service/device_init/src/sl_device_init_dcdc_s1.o
 .debug_info    0x0000f081      0x1ed ./gecko_sdk_4.4.4/platform/service/device_init/src/sl_device_init_emu_s1.o
 .debug_info    0x0000f26e      0xa04 ./gecko_sdk_4.4.4/platform/service/device_init/src/sl_device_init_hfxo_s1.o
 .debug_info    0x0000fc72      0x1dd ./gecko_sdk_4.4.4/platform/service/device_init/src/sl_device_init_lfxo_s1.o
 .debug_info    0x0000fe4f      0x66d ./gecko_sdk_4.4.4/platform/service/device_init/src/sl_device_init_nvic.o
 .debug_info    0x000104bc       0xa7 ./gecko_sdk_4.4.4/platform/service/system/src/sl_system_init.o
 .debug_info    0x00010563       0x56 ./gecko_sdk_4.4.4/platform/service/system/src/sl_system_kernel.o
 .debug_info    0x000105b9     0x204a ./gecko_sdk_4.4.4/protocol/usb/src/sl_usbd_class_vendor.o
 .debug_info    0x00012603     0x5bf4 ./gecko_sdk_4.4.4/protocol/usb/src/sl_usbd_core.o
 .debug_info    0x000181f7     0x3b53 ./gecko_sdk_4.4.4/protocol/usb/src/sl_usbd_core_ep.o
 .debug_info    0x0001bd4a      0xb8d ./gecko_sdk_4.4.4/protocol/usb/src/sl_usbd_core_os.o
 .debug_info    0x0001c8d7     0x2b67 ./gecko_sdk_4.4.4/protocol/usb/src/sl_usbd_driver_dwc_otg_fs.o
 .debug_info    0x0001f43e     0x64d0 ./gecko_sdk_4.4.4/util/third_party/freertos/cmsis/Source/cmsis_os2.o
 .debug_info    0x0002590e      0x308 ./gecko_sdk_4.4.4/util/third_party/freertos/kernel/list.o
 .debug_info    0x00025c16     0x2add ./gecko_sdk_4.4.4/util/third_party/freertos/kernel/queue.o
 .debug_info    0x000286f3     0x3774 ./gecko_sdk_4.4.4/util/third_party/freertos/kernel/tasks.o
 .debug_info    0x0002be67     0x1e75 ./gecko_sdk_4.4.4/util/third_party/freertos/kernel/timers.o
 .debug_info    0x0002dcdc      0x5c2 ./gecko_sdk_4.4.4/util/third_party/freertos/kernel/portable/GCC/ARM_CM4F/port.o
 .debug_info    0x0002e29e      0x633 ./gecko_sdk_4.4.4/util/third_party/freertos/kernel/portable/MemMang/heap_4.o

.debug_abbrev   0x00000000     0x5557
 .debug_abbrev  0x00000000       0x30 ./app.o
 .debug_abbrev  0x00000030       0x5d ./main.o
 .debug_abbrev  0x0000008d       0xcb ./usb_composite_app.o
 .debug_abbrev  0x00000158       0x46 ./autogen/sl_board_default_init.o
 .debug_abbrev  0x0000019e      0x145 ./autogen/sl_device_init_clocks.o
 .debug_abbrev  0x000002e3      0x1b0 ./autogen/sl_event_handler.o
 .debug_abbrev  0x00000493      0x1e5 ./autogen/sl_usbd_class_vendor_instances.o
 .debug_abbrev  0x00000678      0x11f ./autogen/sl_usbd_configuration_instances.o
 .debug_abbrev  0x00000797       0xa7 ./autogen/sl_usbd_init.o
 .debug_abbrev  0x0000083e      0x114 ./gecko_sdk_4.4.4/hardware/board/src/sl_board_init.o
 .debug_abbrev  0x00000952      0x1c8 ./gecko_sdk_4.4.4/platform/Device/SiliconLabs/EFM32GG11B/Source/startup_efm32gg11b.o
 .debug_abbrev  0x00000b1a      0x231 ./gecko_sdk_4.4.4/platform/Device/SiliconLabs/EFM32GG11B/Source/system_efm32gg11b.o
 .debug_abbrev  0x00000d4b       0x6c ./gecko_sdk_4.4.4/platform/common/src/sl_assert.o
 .debug_abbrev  0x00000db7      0x243 ./gecko_sdk_4.4.4/platform/common/src/sl_string.o
 .debug_abbrev  0x00000ffa      0x143 ./gecko_sdk_4.4.4/platform/common/src/sl_syscalls.o
 .debug_abbrev  0x0000113d      0x11e ./gecko_sdk_4.4.4/platform/common/toolchain/src/sl_memory.o
 .debug_abbrev  0x0000125b      0x5c7 ./gecko_sdk_4.4.4/platform/emlib/src/em_cmu.o
 .debug_abbrev  0x00001822      0x33e ./gecko_sdk_4.4.4/platform/emlib/src/em_core.o
 .debug_abbrev  0x00001b60      0x60b ./gecko_sdk_4.4.4/platform/emlib/src/em_emu.o
 .debug_abbrev  0x0000216b      0x10b ./gecko_sdk_4.4.4/platform/service/device_init/src/sl_device_init_dcdc_s1.o
 .debug_abbrev  0x00002276      0x109 ./gecko_sdk_4.4.4/platform/service/device_init/src/sl_device_init_emu_s1.o
 .debug_abbrev  0x0000237f      0x178 ./gecko_sdk_4.4.4/platform/service/device_init/src/sl_device_init_hfxo_s1.o
 .debug_abbrev  0x000024f7      0x105 ./gecko_sdk_4.4.4/platform/service/device_init/src/sl_device_init_lfxo_s1.o
 .debug_abbrev  0x000025fc      0x15a ./gecko_sdk_4.4.4/platform/service/device_init/src/sl_device_init_nvic.o
 .debug_abbrev  0x00002756       0x5c ./gecko_sdk_4.4.4/platform/service/system/src/sl_system_init.o
 .debug_abbrev  0x000027b2       0x51 ./gecko_sdk_4.4.4/platform/service/system/src/sl_system_kernel.o
 .debug_abbrev  0x00002803      0x338 ./gecko_sdk_4.4.4/protocol/usb/src/sl_usbd_class_vendor.o
 .debug_abbrev  0x00002b3b      0x4f3 ./gecko_sdk_4.4.4/protocol/usb/src/sl_usbd_core.o
 .debug_abbrev  0x0000302e      0x3ff ./gecko_sdk_4.4.4/protocol/usb/src/sl_usbd_core_ep.o
 .debug_abbrev  0x0000342d      0x2ca ./gecko_sdk_4.4.4/protocol/usb/src/sl_usbd_core_os.o
 .debug_abbrev  0x000036f7      0x3c3 ./gecko_sdk_4.4.4/protocol/usb/src/sl_usbd_driver_dwc_otg_fs.o
 .debug_abbrev  0x00003aba      0x61f ./gecko_sdk_4.4.4/util/third_party/freertos/cmsis/Source/cmsis_os2.o
 .debug_abbrev  0x000040d9      0x124 ./gecko_sdk_4.4.4/util/third_party/freertos/kernel/list.o
 .debug_abbrev  0x000041fd      0x45e ./gecko_sdk_4.4.4/util/third_party/freertos/kernel/queue.o
 .debug_abbrev  0x0000465b      0x553 ./gecko_sdk_4.4.4/util/third_party/freertos/kernel/tasks.o
 .debug_abbrev  0x00004bae      0x449 ./gecko_sdk_4.4.4/util/third_party/freertos/kernel/timers.o
 .debug_abbrev  0x00004ff7      0x2de ./gecko_sdk_4.4.4/util/third_party/freertos/kernel/portable/GCC/ARM_CM4F/port.o
 .debug_abbrev  0x000052d5      0x282 ./gecko_sdk_4.4.4/util/third_party/freertos/kernel/portable/MemMang/heap_4.o

.debug_aranges  0x00000000     0x1570
 .debug_aranges
                0x00000000       0x20 ./app.o
 .debug_aranges
                0x00000020       0x20 ./main.o
 .debug_aranges
                0x00000040       0x28 ./usb_composite_app.o
 .debug_aranges
                0x00000068       0x20 ./autogen/sl_board_default_init.o
 .debug_aranges
                0x00000088       0x20 ./autogen/sl_device_init_clocks.o
 .debug_aranges
                0x000000a8       0x48 ./autogen/sl_event_handler.o
 .debug_aranges
                0x000000f0       0x38 ./autogen/sl_usbd_class_vendor_instances.o
 .debug_aranges
                0x00000128       0x20 ./autogen/sl_usbd_configuration_instances.o
 .debug_aranges
                0x00000148       0x20 ./autogen/sl_usbd_init.o
 .debug_aranges
                0x00000168       0x28 ./gecko_sdk_4.4.4/hardware/board/src/sl_board_init.o
 .debug_aranges
                0x00000190       0x28 ./gecko_sdk_4.4.4/platform/Device/SiliconLabs/EFM32GG11B/Source/startup_efm32gg11b.o
 .debug_aranges
                0x000001b8       0x68 ./gecko_sdk_4.4.4/platform/Device/SiliconLabs/EFM32GG11B/Source/system_efm32gg11b.o
 .debug_aranges
                0x00000220       0x20 ./gecko_sdk_4.4.4/platform/common/src/sl_assert.o
 .debug_aranges
                0x00000240       0x50 ./gecko_sdk_4.4.4/platform/common/src/sl_string.o
 .debug_aranges
                0x00000290       0x68 ./gecko_sdk_4.4.4/platform/common/src/sl_syscalls.o
 .debug_aranges
                0x000002f8       0x30 ./gecko_sdk_4.4.4/platform/common/toolchain/src/sl_memory.o
 .debug_aranges
                0x00000328      0x1f0 ./gecko_sdk_4.4.4/platform/emlib/src/em_cmu.o
 .debug_aranges
                0x00000518       0xe8 ./gecko_sdk_4.4.4/platform/emlib/src/em_core.o
 .debug_aranges
                0x00000600      0x1d0 ./gecko_sdk_4.4.4/platform/emlib/src/em_emu.o
 .debug_aranges
                0x000007d0       0x20 ./gecko_sdk_4.4.4/platform/service/device_init/src/sl_device_init_dcdc_s1.o
 .debug_aranges
                0x000007f0       0x20 ./gecko_sdk_4.4.4/platform/service/device_init/src/sl_device_init_emu_s1.o
 .debug_aranges
                0x00000810       0x20 ./gecko_sdk_4.4.4/platform/service/device_init/src/sl_device_init_hfxo_s1.o
 .debug_aranges
                0x00000830       0x20 ./gecko_sdk_4.4.4/platform/service/device_init/src/sl_device_init_lfxo_s1.o
 .debug_aranges
                0x00000850       0x20 ./gecko_sdk_4.4.4/platform/service/device_init/src/sl_device_init_nvic.o
 .debug_aranges
                0x00000870       0x20 ./gecko_sdk_4.4.4/platform/service/system/src/sl_system_init.o
 .debug_aranges
                0x00000890       0x20 ./gecko_sdk_4.4.4/platform/service/system/src/sl_system_kernel.o
 .debug_aranges
                0x000008b0       0xe8 ./gecko_sdk_4.4.4/protocol/usb/src/sl_usbd_class_vendor.o
 .debug_aranges
                0x00000998      0x1e0 ./gecko_sdk_4.4.4/protocol/usb/src/sl_usbd_core.o
 .debug_aranges
                0x00000b78      0x158 ./gecko_sdk_4.4.4/protocol/usb/src/sl_usbd_core_ep.o
 .debug_aranges
                0x00000cd0       0x80 ./gecko_sdk_4.4.4/protocol/usb/src/sl_usbd_core_os.o
 .debug_aranges
                0x00000d50       0xb0 ./gecko_sdk_4.4.4/protocol/usb/src/sl_usbd_driver_dwc_otg_fs.o
 .debug_aranges
                0x00000e00      0x278 ./gecko_sdk_4.4.4/util/third_party/freertos/cmsis/Source/cmsis_os2.o
 .debug_aranges
                0x00001078       0x40 ./gecko_sdk_4.4.4/util/third_party/freertos/kernel/list.o
 .debug_aranges
                0x000010b8      0x138 ./gecko_sdk_4.4.4/util/third_party/freertos/kernel/queue.o
 .debug_aranges
                0x000011f0      0x1f0 ./gecko_sdk_4.4.4/util/third_party/freertos/kernel/tasks.o
 .debug_aranges
                0x000013e0       0xc0 ./gecko_sdk_4.4.4/util/third_party/freertos/kernel/timers.o
 .debug_aranges
                0x000014a0       0x80 ./gecko_sdk_4.4.4/util/third_party/freertos/kernel/portable/GCC/ARM_CM4F/port.o
 .debug_aranges
                0x00001520       0x50 ./gecko_sdk_4.4.4/util/third_party/freertos/kernel/portable/MemMang/heap_4.o

.debug_ranges   0x00000000     0x25b0
 .debug_ranges  0x00000000       0x10 ./app.o
 .debug_ranges  0x00000010       0x10 ./main.o
 .debug_ranges  0x00000020       0x18 ./usb_composite_app.o
 .debug_ranges  0x00000038       0x10 ./autogen/sl_board_default_init.o
 .debug_ranges  0x00000048       0x10 ./autogen/sl_device_init_clocks.o
 .debug_ranges  0x00000058       0x50 ./autogen/sl_event_handler.o
 .debug_ranges  0x000000a8       0x28 ./autogen/sl_usbd_class_vendor_instances.o
 .debug_ranges  0x000000d0       0x10 ./autogen/sl_usbd_configuration_instances.o
 .debug_ranges  0x000000e0       0x10 ./autogen/sl_usbd_init.o
 .debug_ranges  0x000000f0       0x18 ./gecko_sdk_4.4.4/hardware/board/src/sl_board_init.o
 .debug_ranges  0x00000108       0x80 ./gecko_sdk_4.4.4/platform/Device/SiliconLabs/EFM32GG11B/Source/startup_efm32gg11b.o
 .debug_ranges  0x00000188       0x58 ./gecko_sdk_4.4.4/platform/Device/SiliconLabs/EFM32GG11B/Source/system_efm32gg11b.o
 .debug_ranges  0x000001e0       0x10 ./gecko_sdk_4.4.4/platform/common/src/sl_assert.o
 .debug_ranges  0x000001f0       0xb0 ./gecko_sdk_4.4.4/platform/common/src/sl_string.o
 .debug_ranges  0x000002a0       0x58 ./gecko_sdk_4.4.4/platform/common/src/sl_syscalls.o
 .debug_ranges  0x000002f8       0x20 ./gecko_sdk_4.4.4/platform/common/toolchain/src/sl_memory.o
 .debug_ranges  0x00000318      0x5e0 ./gecko_sdk_4.4.4/platform/emlib/src/em_cmu.o
 .debug_ranges  0x000008f8      0x1a0 ./gecko_sdk_4.4.4/platform/emlib/src/em_core.o
 .debug_ranges  0x00000a98      0x498 ./gecko_sdk_4.4.4/platform/emlib/src/em_emu.o
 .debug_ranges  0x00000f30       0x10 ./gecko_sdk_4.4.4/platform/service/device_init/src/sl_device_init_dcdc_s1.o
 .debug_ranges  0x00000f40       0x10 ./gecko_sdk_4.4.4/platform/service/device_init/src/sl_device_init_emu_s1.o
 .debug_ranges  0x00000f50       0x10 ./gecko_sdk_4.4.4/platform/service/device_init/src/sl_device_init_hfxo_s1.o
 .debug_ranges  0x00000f60       0x10 ./gecko_sdk_4.4.4/platform/service/device_init/src/sl_device_init_lfxo_s1.o
 .debug_ranges  0x00000f70       0x68 ./gecko_sdk_4.4.4/platform/service/device_init/src/sl_device_init_nvic.o
 .debug_ranges  0x00000fd8       0x10 ./gecko_sdk_4.4.4/platform/service/system/src/sl_system_init.o
 .debug_ranges  0x00000fe8       0x10 ./gecko_sdk_4.4.4/platform/service/system/src/sl_system_kernel.o
 .debug_ranges  0x00000ff8       0xd8 ./gecko_sdk_4.4.4/protocol/usb/src/sl_usbd_class_vendor.o
 .debug_ranges  0x000010d0      0x3e8 ./gecko_sdk_4.4.4/protocol/usb/src/sl_usbd_core.o
 .debug_ranges  0x000014b8      0x178 ./gecko_sdk_4.4.4/protocol/usb/src/sl_usbd_core_ep.o
 .debug_ranges  0x00001630       0x70 ./gecko_sdk_4.4.4/protocol/usb/src/sl_usbd_core_os.o
 .debug_ranges  0x000016a0       0xe8 ./gecko_sdk_4.4.4/protocol/usb/src/sl_usbd_driver_dwc_otg_fs.o
 .debug_ranges  0x00001788      0x538 ./gecko_sdk_4.4.4/util/third_party/freertos/cmsis/Source/cmsis_os2.o
 .debug_ranges  0x00001cc0       0x30 ./gecko_sdk_4.4.4/util/third_party/freertos/kernel/list.o
 .debug_ranges  0x00001cf0      0x288 ./gecko_sdk_4.4.4/util/third_party/freertos/kernel/queue.o
 .debug_ranges  0x00001f78      0x3a8 ./gecko_sdk_4.4.4/util/third_party/freertos/kernel/tasks.o
 .debug_ranges  0x00002320      0x1a8 ./gecko_sdk_4.4.4/util/third_party/freertos/kernel/timers.o
 .debug_ranges  0x000024c8       0xa8 ./gecko_sdk_4.4.4/util/third_party/freertos/kernel/portable/GCC/ARM_CM4F/port.o
 .debug_ranges  0x00002570       0x40 ./gecko_sdk_4.4.4/util/third_party/freertos/kernel/portable/MemMang/heap_4.o

.debug_line     0x00000000    0x1a65e
 .debug_line    0x00000000       0x3b ./app.o
 .debug_line    0x0000003b       0xe5 ./main.o
 .debug_line    0x00000120      0x1d1 ./usb_composite_app.o
 .debug_line    0x000002f1       0x55 ./autogen/sl_board_default_init.o
 .debug_line    0x00000346      0x2e6 ./autogen/sl_device_init_clocks.o
 .debug_line    0x0000062c      0x5d1 ./autogen/sl_event_handler.o
 .debug_line    0x00000bfd      0x4ed ./autogen/sl_usbd_class_vendor_instances.o
 .debug_line    0x000010ea      0x26c ./autogen/sl_usbd_configuration_instances.o
 .debug_line    0x00001356      0x245 ./autogen/sl_usbd_init.o
 .debug_line    0x0000159b      0x1f2 ./gecko_sdk_4.4.4/hardware/board/src/sl_board_init.o
 .debug_line    0x0000178d      0x314 ./gecko_sdk_4.4.4/platform/Device/SiliconLabs/EFM32GG11B/Source/startup_efm32gg11b.o
 .debug_line    0x00001aa1      0x440 ./gecko_sdk_4.4.4/platform/Device/SiliconLabs/EFM32GG11B/Source/system_efm32gg11b.o
 .debug_line    0x00001ee1       0x82 ./gecko_sdk_4.4.4/platform/common/src/sl_assert.o
 .debug_line    0x00001f63      0x4e3 ./gecko_sdk_4.4.4/platform/common/src/sl_string.o
 .debug_line    0x00002446      0x16d ./gecko_sdk_4.4.4/platform/common/src/sl_syscalls.o
 .debug_line    0x000025b3      0x2df ./gecko_sdk_4.4.4/platform/common/toolchain/src/sl_memory.o
 .debug_line    0x00002892     0x3189 ./gecko_sdk_4.4.4/platform/emlib/src/em_cmu.o
 .debug_line    0x00005a1b      0xaa2 ./gecko_sdk_4.4.4/platform/emlib/src/em_core.o
 .debug_line    0x000064bd     0x1fa7 ./gecko_sdk_4.4.4/platform/emlib/src/em_emu.o
 .debug_line    0x00008464      0x258 ./gecko_sdk_4.4.4/platform/service/device_init/src/sl_device_init_dcdc_s1.o
 .debug_line    0x000086bc      0x275 ./gecko_sdk_4.4.4/platform/service/device_init/src/sl_device_init_emu_s1.o
 .debug_line    0x00008931      0x33c ./gecko_sdk_4.4.4/platform/service/device_init/src/sl_device_init_hfxo_s1.o
 .debug_line    0x00008c6d      0x269 ./gecko_sdk_4.4.4/platform/service/device_init/src/sl_device_init_lfxo_s1.o
 .debug_line    0x00008ed6      0x36e ./gecko_sdk_4.4.4/platform/service/device_init/src/sl_device_init_nvic.o
 .debug_line    0x00009244       0xda ./gecko_sdk_4.4.4/platform/service/system/src/sl_system_init.o
 .debug_line    0x0000931e       0xc9 ./gecko_sdk_4.4.4/platform/service/system/src/sl_system_kernel.o
 .debug_line    0x000093e7     0x1174 ./gecko_sdk_4.4.4/protocol/usb/src/sl_usbd_class_vendor.o
 .debug_line    0x0000a55b     0x361a ./gecko_sdk_4.4.4/protocol/usb/src/sl_usbd_core.o
 .debug_line    0x0000db75     0x1f67 ./gecko_sdk_4.4.4/protocol/usb/src/sl_usbd_core_ep.o
 .debug_line    0x0000fadc      0x55e ./gecko_sdk_4.4.4/protocol/usb/src/sl_usbd_core_os.o
 .debug_line    0x0001003a     0x144e ./gecko_sdk_4.4.4/protocol/usb/src/sl_usbd_driver_dwc_otg_fs.o
 .debug_line    0x00011488     0x36cc ./gecko_sdk_4.4.4/util/third_party/freertos/cmsis/Source/cmsis_os2.o
 .debug_line    0x00014b54      0x406 ./gecko_sdk_4.4.4/util/third_party/freertos/kernel/list.o
 .debug_line    0x00014f5a     0x1830 ./gecko_sdk_4.4.4/util/third_party/freertos/kernel/queue.o
 .debug_line    0x0001678a     0x2397 ./gecko_sdk_4.4.4/util/third_party/freertos/kernel/tasks.o
 .debug_line    0x00018b21      0xc91 ./gecko_sdk_4.4.4/util/third_party/freertos/kernel/timers.o
 .debug_line    0x000197b2      0x6f8 ./gecko_sdk_4.4.4/util/third_party/freertos/kernel/portable/GCC/ARM_CM4F/port.o
 .debug_line    0x00019eaa      0x7b4 ./gecko_sdk_4.4.4/util/third_party/freertos/kernel/portable/MemMang/heap_4.o

.debug_str      0x00000000     0xafca
 .debug_str     0x00000000      0x11f ./app.o
                                0x128 (size before relaxing)
 .debug_str     0x0000011f       0x30 ./main.o
                                0x154 (size before relaxing)
 .debug_str     0x0000014f      0x1ea ./usb_composite_app.o
                                0x350 (size before relaxing)
 .debug_str     0x00000339       0x39 ./autogen/sl_board_default_init.o
                                0x1d3 (size before relaxing)
 .debug_str     0x00000372      0x90d ./autogen/sl_device_init_clocks.o
                                0xaeb (size before relaxing)
 .debug_str     0x00000c7f      0x2b3 ./autogen/sl_event_handler.o
                                0x7bd (size before relaxing)
 .debug_str     0x00000f32      0x2d9 ./autogen/sl_usbd_class_vendor_instances.o
                                0x513 (size before relaxing)
 .debug_str     0x0000120b       0xe9 ./autogen/sl_usbd_configuration_instances.o
                                0x33c (size before relaxing)
 .debug_str     0x000012f4       0x40 ./autogen/sl_usbd_init.o
                                0x213 (size before relaxing)
 .debug_str     0x00001334       0x36 ./gecko_sdk_4.4.4/hardware/board/src/sl_board_init.o
                                0x70c (size before relaxing)
 .debug_str     0x0000136a      0x14b ./gecko_sdk_4.4.4/platform/Device/SiliconLabs/EFM32GG11B/Source/startup_efm32gg11b.o
                                0x300 (size before relaxing)
 .debug_str     0x000014b5      0x193 ./gecko_sdk_4.4.4/platform/Device/SiliconLabs/EFM32GG11B/Source/system_efm32gg11b.o
                                0x6d1 (size before relaxing)
 .debug_str     0x00001648       0x3d ./gecko_sdk_4.4.4/platform/common/src/sl_assert.o
                                0x162 (size before relaxing)
 .debug_str     0x00001685       0xe5 ./gecko_sdk_4.4.4/platform/common/src/sl_string.o
                                0x2be (size before relaxing)
 .debug_str     0x0000176a       0x85 ./gecko_sdk_4.4.4/platform/common/src/sl_syscalls.o
                                0x242 (size before relaxing)
 .debug_str     0x000017ef       0xc6 ./gecko_sdk_4.4.4/platform/common/toolchain/src/sl_memory.o
                                0x29c (size before relaxing)
 .debug_str     0x000018b5     0x1527 ./gecko_sdk_4.4.4/platform/emlib/src/em_cmu.o
                               0x2206 (size before relaxing)
 .debug_str     0x00002ddc      0x720 ./gecko_sdk_4.4.4/platform/emlib/src/em_core.o
                                0x9ea (size before relaxing)
 .debug_str     0x000034fc     0x14f7 ./gecko_sdk_4.4.4/platform/emlib/src/em_emu.o
                               0x29b7 (size before relaxing)
 .debug_str     0x000049f3       0x4d ./gecko_sdk_4.4.4/platform/service/device_init/src/sl_device_init_dcdc_s1.o
                                0x450 (size before relaxing)
 .debug_str     0x00004a40       0x55 ./gecko_sdk_4.4.4/platform/service/device_init/src/sl_device_init_emu_s1.o
                                0x371 (size before relaxing)
 .debug_str     0x00004a95       0x4d ./gecko_sdk_4.4.4/platform/service/device_init/src/sl_device_init_hfxo_s1.o
                                0x830 (size before relaxing)
 .debug_str     0x00004ae2       0x4d ./gecko_sdk_4.4.4/platform/service/device_init/src/sl_device_init_lfxo_s1.o
                                0x308 (size before relaxing)
 .debug_str     0x00004b2f       0x66 ./gecko_sdk_4.4.4/platform/service/device_init/src/sl_device_init_nvic.o
                                0x6e0 (size before relaxing)
 .debug_str     0x00004b95       0x40 ./gecko_sdk_4.4.4/platform/service/system/src/sl_system_init.o
                                0x1b8 (size before relaxing)
 .debug_str     0x00004bd5       0x42 ./gecko_sdk_4.4.4/platform/service/system/src/sl_system_kernel.o
                                0x17f (size before relaxing)
 .debug_str     0x00004c17      0xbeb ./gecko_sdk_4.4.4/protocol/usb/src/sl_usbd_class_vendor.o
                                0xfb0 (size before relaxing)
 .debug_str     0x00005802     0x1640 ./gecko_sdk_4.4.4/protocol/usb/src/sl_usbd_core.o
                               0x201d (size before relaxing)
 .debug_str     0x00006e42      0x7fc ./gecko_sdk_4.4.4/protocol/usb/src/sl_usbd_core_ep.o
                               0x181e (size before relaxing)
 .debug_str     0x0000763e      0x688 ./gecko_sdk_4.4.4/protocol/usb/src/sl_usbd_core_os.o
                                0xb03 (size before relaxing)
 .debug_str     0x00007cc6      0x575 ./gecko_sdk_4.4.4/protocol/usb/src/sl_usbd_driver_dwc_otg_fs.o
                               0x1b18 (size before relaxing)
 .debug_str     0x0000823b     0x12dc ./gecko_sdk_4.4.4/util/third_party/freertos/cmsis/Source/cmsis_os2.o
                               0x20e9 (size before relaxing)
 .debug_str     0x00009517      0x142 ./gecko_sdk_4.4.4/util/third_party/freertos/kernel/list.o
                                0x32d (size before relaxing)
 .debug_str     0x00009659      0x64a ./gecko_sdk_4.4.4/util/third_party/freertos/kernel/queue.o
                                0xd3b (size before relaxing)
 .debug_str     0x00009ca3      0x9ee ./gecko_sdk_4.4.4/util/third_party/freertos/kernel/tasks.o
                               0x13c1 (size before relaxing)
 .debug_str     0x0000a691      0x4e5 ./gecko_sdk_4.4.4/util/third_party/freertos/kernel/timers.o
                                0xc5e (size before relaxing)
 .debug_str     0x0000ab76      0x189 ./gecko_sdk_4.4.4/util/third_party/freertos/kernel/portable/GCC/ARM_CM4F/port.o
                                0x4ac (size before relaxing)
 .debug_str     0x0000acff      0x2cb ./gecko_sdk_4.4.4/util/third_party/freertos/kernel/portable/MemMang/heap_4.o
                                0x531 (size before relaxing)

.debug_frame    0x00000000     0x486c
 .debug_frame   0x00000000       0x20 ./app.o
 .debug_frame   0x00000020       0x28 ./main.o
 .debug_frame   0x00000048       0x30 ./usb_composite_app.o
 .debug_frame   0x00000078       0x20 ./autogen/sl_board_default_init.o
 .debug_frame   0x00000098       0x2c ./autogen/sl_device_init_clocks.o
 .debug_frame   0x000000c4       0x88 ./autogen/sl_event_handler.o
 .debug_frame   0x0000014c       0x80 ./autogen/sl_usbd_class_vendor_instances.o
 .debug_frame   0x000001cc       0x28 ./autogen/sl_usbd_configuration_instances.o
 .debug_frame   0x000001f4       0x2c ./autogen/sl_usbd_init.o
 .debug_frame   0x00000220       0x3c ./gecko_sdk_4.4.4/hardware/board/src/sl_board_init.o
 .debug_frame   0x0000025c       0x38 ./gecko_sdk_4.4.4/platform/Device/SiliconLabs/EFM32GG11B/Source/startup_efm32gg11b.o
 .debug_frame   0x00000294       0xb8 ./gecko_sdk_4.4.4/platform/Device/SiliconLabs/EFM32GG11B/Source/system_efm32gg11b.o
 .debug_frame   0x0000034c       0x20 ./gecko_sdk_4.4.4/platform/common/src/sl_assert.o
 .debug_frame   0x0000036c       0xb8 ./gecko_sdk_4.4.4/platform/common/src/sl_string.o
 .debug_frame   0x00000424       0xb0 ./gecko_sdk_4.4.4/platform/common/src/sl_syscalls.o
 .debug_frame   0x000004d4       0x40 ./gecko_sdk_4.4.4/platform/common/toolchain/src/sl_memory.o
 .debug_frame   0x00000514      0x66c ./gecko_sdk_4.4.4/platform/emlib/src/em_cmu.o
 .debug_frame   0x00000b80      0x250 ./gecko_sdk_4.4.4/platform/emlib/src/em_core.o
 .debug_frame   0x00000dd0      0x4e4 ./gecko_sdk_4.4.4/platform/emlib/src/em_emu.o
 .debug_frame   0x000012b4       0x30 ./gecko_sdk_4.4.4/platform/service/device_init/src/sl_device_init_dcdc_s1.o
 .debug_frame   0x000012e4       0x2c ./gecko_sdk_4.4.4/platform/service/device_init/src/sl_device_init_emu_s1.o
 .debug_frame   0x00001310       0x2c ./gecko_sdk_4.4.4/platform/service/device_init/src/sl_device_init_hfxo_s1.o
 .debug_frame   0x0000133c       0x28 ./gecko_sdk_4.4.4/platform/service/device_init/src/sl_device_init_lfxo_s1.o
 .debug_frame   0x00001364       0x28 ./gecko_sdk_4.4.4/platform/service/device_init/src/sl_device_init_nvic.o
 .debug_frame   0x0000138c       0x2c ./gecko_sdk_4.4.4/platform/service/system/src/sl_system_init.o
 .debug_frame   0x000013b8       0x20 ./gecko_sdk_4.4.4/platform/service/system/src/sl_system_kernel.o
 .debug_frame   0x000013d8      0x3b0 ./gecko_sdk_4.4.4/protocol/usb/src/sl_usbd_class_vendor.o
 .debug_frame   0x00001788      0x70c ./gecko_sdk_4.4.4/protocol/usb/src/sl_usbd_core.o
 .debug_frame   0x00001e94      0x568 ./gecko_sdk_4.4.4/protocol/usb/src/sl_usbd_core_ep.o
 .debug_frame   0x000023fc      0x14c ./gecko_sdk_4.4.4/protocol/usb/src/sl_usbd_core_os.o
 .debug_frame   0x00002548      0x1e8 ./gecko_sdk_4.4.4/protocol/usb/src/sl_usbd_driver_dwc_otg_fs.o
 .debug_frame   0x00002730      0x768 ./gecko_sdk_4.4.4/util/third_party/freertos/cmsis/Source/cmsis_os2.o
 .debug_frame   0x00002e98       0x6c ./gecko_sdk_4.4.4/util/third_party/freertos/kernel/list.o
 .debug_frame   0x00002f04      0x414 ./gecko_sdk_4.4.4/util/third_party/freertos/kernel/queue.o
 .debug_frame   0x00003318      0x6b0 ./gecko_sdk_4.4.4/util/third_party/freertos/kernel/tasks.o
 .debug_frame   0x000039c8      0x288 ./gecko_sdk_4.4.4/util/third_party/freertos/kernel/timers.o
 .debug_frame   0x00003c50      0x118 ./gecko_sdk_4.4.4/util/third_party/freertos/kernel/portable/GCC/ARM_CM4F/port.o
 .debug_frame   0x00003d68       0xd4 ./gecko_sdk_4.4.4/util/third_party/freertos/kernel/portable/MemMang/heap_4.o
 .debug_frame   0x00003e3c       0x28 e:/siliconlabs/simplicitystudio/v5/developer/toolchains/gnu_arm/12.2.rel1_2023.7/bin/../lib/gcc/arm-none-eabi/12.2.1/thumb/v7e-m+fp/softfp\libc_nano.a(libc_a-exit.o)
 .debug_frame   0x00003e64       0x30 e:/siliconlabs/simplicitystudio/v5/developer/toolchains/gnu_arm/12.2.rel1_2023.7/bin/../lib/gcc/arm-none-eabi/12.2.1/thumb/v7e-m+fp/softfp\libc_nano.a(libc_a-malloc.o)
 .debug_frame   0x00003e94       0x4c e:/siliconlabs/simplicitystudio/v5/developer/toolchains/gnu_arm/12.2.rel1_2023.7/bin/../lib/gcc/arm-none-eabi/12.2.1/thumb/v7e-m+fp/softfp\libc_nano.a(libc_a-mallocr.o)
 .debug_frame   0x00003ee0       0x30 e:/siliconlabs/simplicitystudio/v5/developer/toolchains/gnu_arm/12.2.rel1_2023.7/bin/../lib/gcc/arm-none-eabi/12.2.1/thumb/v7e-m+fp/softfp\libc_nano.a(libc_a-mlock.o)
 .debug_frame   0x00003f10      0x144 e:/siliconlabs/simplicitystudio/v5/developer/toolchains/gnu_arm/12.2.rel1_2023.7/bin/../lib/gcc/arm-none-eabi/12.2.1/thumb/v7e-m+fp/softfp\libc_nano.a(libc_a-findfp.o)
 .debug_frame   0x00004054       0x34 e:/siliconlabs/simplicitystudio/v5/developer/toolchains/gnu_arm/12.2.rel1_2023.7/bin/../lib/gcc/arm-none-eabi/12.2.1/thumb/v7e-m+fp/softfp\libc_nano.a(libc_a-fwalk.o)
 .debug_frame   0x00004088       0x88 e:/siliconlabs/simplicitystudio/v5/developer/toolchains/gnu_arm/12.2.rel1_2023.7/bin/../lib/gcc/arm-none-eabi/12.2.1/thumb/v7e-m+fp/softfp\libc_nano.a(libc_a-stdio.o)
 .debug_frame   0x00004110       0x20 e:/siliconlabs/simplicitystudio/v5/developer/toolchains/gnu_arm/12.2.rel1_2023.7/bin/../lib/gcc/arm-none-eabi/12.2.1/thumb/v7e-m+fp/softfp\libc_nano.a(libc_a-memset.o)
 .debug_frame   0x00004130       0x38 e:/siliconlabs/simplicitystudio/v5/developer/toolchains/gnu_arm/12.2.rel1_2023.7/bin/../lib/gcc/arm-none-eabi/12.2.1/thumb/v7e-m+fp/softfp\libc_nano.a(libc_a-strtok.o)
 .debug_frame   0x00004168       0x40 e:/siliconlabs/simplicitystudio/v5/developer/toolchains/gnu_arm/12.2.rel1_2023.7/bin/../lib/gcc/arm-none-eabi/12.2.1/thumb/v7e-m+fp/softfp\libc_nano.a(libc_a-strtok_r.o)
 .debug_frame   0x000041a8       0x2c e:/siliconlabs/simplicitystudio/v5/developer/toolchains/gnu_arm/12.2.rel1_2023.7/bin/../lib/gcc/arm-none-eabi/12.2.1/thumb/v7e-m+fp/softfp\libc_nano.a(libc_a-closer.o)
 .debug_frame   0x000041d4       0x38 e:/siliconlabs/simplicitystudio/v5/developer/toolchains/gnu_arm/12.2.rel1_2023.7/bin/../lib/gcc/arm-none-eabi/12.2.1/thumb/v7e-m+fp/softfp\libc_nano.a(libc_a-reent.o)
 .debug_frame   0x0000420c       0x2c e:/siliconlabs/simplicitystudio/v5/developer/toolchains/gnu_arm/12.2.rel1_2023.7/bin/../lib/gcc/arm-none-eabi/12.2.1/thumb/v7e-m+fp/softfp\libc_nano.a(libc_a-lseekr.o)
 .debug_frame   0x00004238       0x2c e:/siliconlabs/simplicitystudio/v5/developer/toolchains/gnu_arm/12.2.rel1_2023.7/bin/../lib/gcc/arm-none-eabi/12.2.1/thumb/v7e-m+fp/softfp\libc_nano.a(libc_a-readr.o)
 .debug_frame   0x00004264       0x2c e:/siliconlabs/simplicitystudio/v5/developer/toolchains/gnu_arm/12.2.rel1_2023.7/bin/../lib/gcc/arm-none-eabi/12.2.1/thumb/v7e-m+fp/softfp\libc_nano.a(libc_a-sbrkr.o)
 .debug_frame   0x00004290       0x2c e:/siliconlabs/simplicitystudio/v5/developer/toolchains/gnu_arm/12.2.rel1_2023.7/bin/../lib/gcc/arm-none-eabi/12.2.1/thumb/v7e-m+fp/softfp\libc_nano.a(libc_a-writer.o)
 .debug_frame   0x000042bc       0x2c e:/siliconlabs/simplicitystudio/v5/developer/toolchains/gnu_arm/12.2.rel1_2023.7/bin/../lib/gcc/arm-none-eabi/12.2.1/thumb/v7e-m+fp/softfp\libc_nano.a(libc_a-init.o)
 .debug_frame   0x000042e8       0xb0 e:/siliconlabs/simplicitystudio/v5/developer/toolchains/gnu_arm/12.2.rel1_2023.7/bin/../lib/gcc/arm-none-eabi/12.2.1/thumb/v7e-m+fp/softfp\libc_nano.a(libc_a-lock.o)
 .debug_frame   0x00004398       0x20 e:/siliconlabs/simplicitystudio/v5/developer/toolchains/gnu_arm/12.2.rel1_2023.7/bin/../lib/gcc/arm-none-eabi/12.2.1/thumb/v7e-m+fp/softfp\libc_nano.a(libc_a-strcmp.o)
 .debug_frame   0x000043b8       0x28 e:/siliconlabs/simplicitystudio/v5/developer/toolchains/gnu_arm/12.2.rel1_2023.7/bin/../lib/gcc/arm-none-eabi/12.2.1/thumb/v7e-m+fp/softfp\libc_nano.a(libc_a-memcpy-stub.o)
 .debug_frame   0x000043e0       0x40 e:/siliconlabs/simplicitystudio/v5/developer/toolchains/gnu_arm/12.2.rel1_2023.7/bin/../lib/gcc/arm-none-eabi/12.2.1/thumb/v7e-m+fp/softfp\libc_nano.a(libc_a-assert.o)
 .debug_frame   0x00004420       0x38 e:/siliconlabs/simplicitystudio/v5/developer/toolchains/gnu_arm/12.2.rel1_2023.7/bin/../lib/gcc/arm-none-eabi/12.2.1/thumb/v7e-m+fp/softfp\libc_nano.a(libc_a-freer.o)
 .debug_frame   0x00004458       0x5c e:/siliconlabs/simplicitystudio/v5/developer/toolchains/gnu_arm/12.2.rel1_2023.7/bin/../lib/gcc/arm-none-eabi/12.2.1/thumb/v7e-m+fp/softfp\libc_nano.a(libc_a-fflush.o)
 .debug_frame   0x000044b4       0x64 e:/siliconlabs/simplicitystudio/v5/developer/toolchains/gnu_arm/12.2.rel1_2023.7/bin/../lib/gcc/arm-none-eabi/12.2.1/thumb/v7e-m+fp/softfp\libc_nano.a(libc_a-fprintf.o)
 .debug_frame   0x00004518       0x28 e:/siliconlabs/simplicitystudio/v5/developer/toolchains/gnu_arm/12.2.rel1_2023.7/bin/../lib/gcc/arm-none-eabi/12.2.1/thumb/v7e-m+fp/softfp\libc_nano.a(libc_a-abort.o)
 .debug_frame   0x00004540       0xa8 e:/siliconlabs/simplicitystudio/v5/developer/toolchains/gnu_arm/12.2.rel1_2023.7/bin/../lib/gcc/arm-none-eabi/12.2.1/thumb/v7e-m+fp/softfp\libc_nano.a(libc_a-nano-vfprintf.o)
 .debug_frame   0x000045e8       0x60 e:/siliconlabs/simplicitystudio/v5/developer/toolchains/gnu_arm/12.2.rel1_2023.7/bin/../lib/gcc/arm-none-eabi/12.2.1/thumb/v7e-m+fp/softfp\libc_nano.a(libc_a-nano-vfprintf_i.o)
 .debug_frame   0x00004648       0x40 e:/siliconlabs/simplicitystudio/v5/developer/toolchains/gnu_arm/12.2.rel1_2023.7/bin/../lib/gcc/arm-none-eabi/12.2.1/thumb/v7e-m+fp/softfp\libc_nano.a(libc_a-wbuf.o)
 .debug_frame   0x00004688       0x2c e:/siliconlabs/simplicitystudio/v5/developer/toolchains/gnu_arm/12.2.rel1_2023.7/bin/../lib/gcc/arm-none-eabi/12.2.1/thumb/v7e-m+fp/softfp\libc_nano.a(libc_a-wsetup.o)
 .debug_frame   0x000046b4       0xcc e:/siliconlabs/simplicitystudio/v5/developer/toolchains/gnu_arm/12.2.rel1_2023.7/bin/../lib/gcc/arm-none-eabi/12.2.1/thumb/v7e-m+fp/softfp\libc_nano.a(libc_a-signal.o)
 .debug_frame   0x00004780       0x3c e:/siliconlabs/simplicitystudio/v5/developer/toolchains/gnu_arm/12.2.rel1_2023.7/bin/../lib/gcc/arm-none-eabi/12.2.1/thumb/v7e-m+fp/softfp\libc_nano.a(libc_a-signalr.o)
 .debug_frame   0x000047bc       0x58 e:/siliconlabs/simplicitystudio/v5/developer/toolchains/gnu_arm/12.2.rel1_2023.7/bin/../lib/gcc/arm-none-eabi/12.2.1/thumb/v7e-m+fp/softfp\libc_nano.a(libc_a-makebuf.o)
 .debug_frame   0x00004814       0x2c e:/siliconlabs/simplicitystudio/v5/developer/toolchains/gnu_arm/12.2.rel1_2023.7/bin/../lib/gcc/arm-none-eabi/12.2.1/thumb/v7e-m+fp/softfp\libc_nano.a(libc_a-fstatr.o)
 .debug_frame   0x00004840       0x2c e:/siliconlabs/simplicitystudio/v5/developer/toolchains/gnu_arm/12.2.rel1_2023.7/bin/../lib/gcc/arm-none-eabi/12.2.1/thumb/v7e-m+fp/softfp\libc_nano.a(libc_a-isattyr.o)

.debug_loc      0x00000000    0x20fec
 .debug_loc     0x00000000       0x20 ./main.o
 .debug_loc     0x00000020       0x20 ./autogen/sl_device_init_clocks.o
 .debug_loc     0x00000040       0x58 ./autogen/sl_event_handler.o
 .debug_loc     0x00000098      0x209 ./autogen/sl_usbd_class_vendor_instances.o
 .debug_loc     0x000002a1       0x9d ./autogen/sl_usbd_configuration_instances.o
 .debug_loc     0x0000033e       0x2c ./autogen/sl_usbd_init.o
 .debug_loc     0x0000036a       0x2c ./gecko_sdk_4.4.4/hardware/board/src/sl_board_init.o
 .debug_loc     0x00000396       0x8e ./gecko_sdk_4.4.4/platform/Device/SiliconLabs/EFM32GG11B/Source/startup_efm32gg11b.o
 .debug_loc     0x00000424       0xe5 ./gecko_sdk_4.4.4/platform/Device/SiliconLabs/EFM32GG11B/Source/system_efm32gg11b.o
 .debug_loc     0x00000509       0x2a ./gecko_sdk_4.4.4/platform/common/src/sl_assert.o
 .debug_loc     0x00000533      0x71f ./gecko_sdk_4.4.4/platform/common/src/sl_string.o
 .debug_loc     0x00000c52      0x118 ./gecko_sdk_4.4.4/platform/common/src/sl_syscalls.o
 .debug_loc     0x00000d6a       0x98 ./gecko_sdk_4.4.4/platform/common/toolchain/src/sl_memory.o
 .debug_loc     0x00000e02     0x46e0 ./gecko_sdk_4.4.4/platform/emlib/src/em_cmu.o
 .debug_loc     0x000054e2      0x9a9 ./gecko_sdk_4.4.4/platform/emlib/src/em_core.o
 .debug_loc     0x00005e8b     0x27f8 ./gecko_sdk_4.4.4/platform/emlib/src/em_emu.o
 .debug_loc     0x00008683       0x2c ./gecko_sdk_4.4.4/platform/service/device_init/src/sl_device_init_dcdc_s1.o
 .debug_loc     0x000086af       0x2c ./gecko_sdk_4.4.4/platform/service/device_init/src/sl_device_init_emu_s1.o
 .debug_loc     0x000086db       0x6b ./gecko_sdk_4.4.4/platform/service/device_init/src/sl_device_init_hfxo_s1.o
 .debug_loc     0x00008746       0x2c ./gecko_sdk_4.4.4/platform/service/device_init/src/sl_device_init_lfxo_s1.o
 .debug_loc     0x00008772       0x79 ./gecko_sdk_4.4.4/platform/service/device_init/src/sl_device_init_nvic.o
 .debug_loc     0x000087eb       0x2c ./gecko_sdk_4.4.4/platform/service/system/src/sl_system_init.o
 .debug_loc     0x00008817     0x22b9 ./gecko_sdk_4.4.4/protocol/usb/src/sl_usbd_class_vendor.o
 .debug_loc     0x0000aad0     0x5c87 ./gecko_sdk_4.4.4/protocol/usb/src/sl_usbd_core.o
 .debug_loc     0x00010757     0x3a7b ./gecko_sdk_4.4.4/protocol/usb/src/sl_usbd_core_ep.o
 .debug_loc     0x000141d2      0x50f ./gecko_sdk_4.4.4/protocol/usb/src/sl_usbd_core_os.o
 .debug_loc     0x000146e1     0x1194 ./gecko_sdk_4.4.4/protocol/usb/src/sl_usbd_driver_dwc_otg_fs.o
 .debug_loc     0x00015875     0x5650 ./gecko_sdk_4.4.4/util/third_party/freertos/cmsis/Source/cmsis_os2.o
 .debug_loc     0x0001aec5       0xcf ./gecko_sdk_4.4.4/util/third_party/freertos/kernel/list.o
 .debug_loc     0x0001af94     0x1d6a ./gecko_sdk_4.4.4/util/third_party/freertos/kernel/queue.o
 .debug_loc     0x0001ccfe     0x2923 ./gecko_sdk_4.4.4/util/third_party/freertos/kernel/tasks.o
 .debug_loc     0x0001f621     0x131b ./gecko_sdk_4.4.4/util/third_party/freertos/kernel/timers.o
 .debug_loc     0x0002093c      0x1d4 ./gecko_sdk_4.4.4/util/third_party/freertos/kernel/portable/GCC/ARM_CM4F/port.o
 .debug_loc     0x00020b10      0x4dc ./gecko_sdk_4.4.4/util/third_party/freertos/kernel/portable/MemMang/heap_4.o
